     VMA      LMA     Size Align Out     In      Symbol
       0        0        0     1 PAGE_SIZE = 512
       0        0        0     1 STACK_MIN_SIZE = DEFINED ( stack_min_size ) ? stack_min_size : 1500
       0        0        0     1 END_STACK = ORIGIN ( SRAM ) + LENGTH ( SRAM )
c0de0000 c0de0000     ec86     8 .text
c0de0000 c0de0000        0     1         _text = .
c0de0000 c0de0000        0     1         _nvram_start = .
c0de0000 c0de0000       16     2         build/nanos2/obj/sdk/lib_standard_app/main.o:(.boot)
c0de0000 c0de0000        0     1                 $t.3
c0de0001 c0de0001       16     1                 main
c0de0016 c0de0016        0     1         _code = .
c0de0016 c0de0016       d4     2         build/nanos2/obj/app/src/address.o:(.text.address_from_pubkey)
c0de0016 c0de0016        0     1                 $t.0
c0de0017 c0de0017       d4     1                 address_from_pubkey
c0de00ea c0de00ea      43a     2         build/nanos2/obj/app/src/apdu/dispatcher.o:(.text.apdu_dispatcher)
c0de00ea c0de00ea        0     1                 $t.0
c0de00eb c0de00eb      43a     1                 apdu_dispatcher
c0de0524 c0de0524      114     4         build/nanos2/obj/app/src/app_main.o:(.text.app_main)
c0de0524 c0de0524        0     1                 $t.0
c0de0525 c0de0525      114     1                 app_main
c0de0638 c0de0638       2c     2         build/nanos2/obj/app/src/handler/get_app_name.o:(.text.handler_get_app_name)
c0de0638 c0de0638        0     1                 $t.0
c0de0639 c0de0639       2c     1                 handler_get_app_name
c0de0664 c0de0664       9e     2         build/nanos2/obj/app/src/handler/get_public_key.o:(.text.handler_get_public_key)
c0de0664 c0de0664        0     1                 $t.0
c0de0665 c0de0665       9e     1                 handler_get_public_key
c0de0702 c0de0702       32     2         build/nanos2/obj/app/src/handler/get_version.o:(.text.handler_get_version)
c0de0702 c0de0702        0     1                 $t.0
c0de0703 c0de0703       32     1                 handler_get_version
c0de0734 c0de0734      456     2         build/nanos2/obj/app/src/handler/handler_hybrid_sign_userop.o:(.text.handler_hybrid_sign_userop)
c0de0734 c0de0734        0     1                 $t.0
c0de0735 c0de0735      456     1                 handler_hybrid_sign_userop
c0de0b8a c0de0b8a        e     2         build/nanos2/obj/app/src/handler/handler_hybrid_sign_userop.o:(.text.userop_get_sender)
c0de0b8a c0de0b8a        0     1                 $t.1
c0de0b8b c0de0b8b        e     1                 userop_get_sender
c0de0b98 c0de0b98        c     2         build/nanos2/obj/app/src/handler/handler_hybrid_sign_userop.o:(.text.userop_get_chain_id)
c0de0b98 c0de0b98        0     1                 $t.2
c0de0b99 c0de0b99        c     1                 userop_get_chain_id
c0de0ba4 c0de0ba4       10     2         build/nanos2/obj/app/src/handler/handler_hybrid_sign_userop.o:(.text.userop_get_call_to)
c0de0ba4 c0de0ba4        0     1                 $t.3
c0de0ba5 c0de0ba5       10     1                 userop_get_call_to
c0de0bb4 c0de0bb4       10     2         build/nanos2/obj/app/src/handler/handler_hybrid_sign_userop.o:(.text.userop_get_call_value)
c0de0bb4 c0de0bb4        0     1                 $t.4
c0de0bb5 c0de0bb5       10     1                 userop_get_call_value
c0de0bc4 c0de0bc4       10     2         build/nanos2/obj/app/src/handler/handler_hybrid_sign_userop.o:(.text.userop_has_call_info)
c0de0bc4 c0de0bc4        0     1                 $t.5
c0de0bc5 c0de0bc5       10     1                 userop_has_call_info
c0de0bd4 c0de0bd4      166     2         build/nanos2/obj/app/src/handler/provide_token_info.o:(.text.handler_provide_token_info)
c0de0bd4 c0de0bd4        0     1                 $t.0
c0de0bd5 c0de0bd5      166     1                 handler_provide_token_info
c0de0d3a c0de0d3a       24     2         build/nanos2/obj/app/src/handler/provide_token_info.o:(.text.handle_tuid_token_address)
c0de0d3a c0de0d3a        0     1                 $t.1
c0de0d3b c0de0d3b       24     1                 handle_tuid_token_address
c0de0d5e c0de0d5e        c     2         build/nanos2/obj/app/src/handler/provide_token_info.o:(.text.parse_dynamic_token_tuid_tag_to_flag)
c0de0d5e c0de0d5e        0     1                 $t.2
c0de0d5f c0de0d5f        c     1                 parse_dynamic_token_tuid_tag_to_flag
c0de0d6a c0de0d6a      1e8     2         build/nanos2/obj/app/src/handler/sign_tx.o:(.text.handler_sign_tx)
c0de0d6a c0de0d6a        0     1                 $t.0
c0de0d6b c0de0d6b      1e8     1                 handler_sign_tx
c0de0f52 c0de0f52       22     2         build/nanos2/obj/app/src/handler/zkn_magicbox.o:(.text.handler_cmd_dummy)
c0de0f52 c0de0f52        0     1                 $t.0
c0de0f53 c0de0f53       22     1                 handler_cmd_dummy
c0de0f74 c0de0f74       3e     2         build/nanos2/obj/app/src/handler/zkn_magicbox.o:(.text.handler_cmd_keccakH)
c0de0f74 c0de0f74        0     1                 $t.1
c0de0f75 c0de0f75       3e     1                 handler_cmd_keccakH
c0de0fb2 c0de0fb2       b0     2         build/nanos2/obj/app/src/handler/zkn_magicbox.o:(.text.handler_cmd_keccak_prng)
c0de0fb2 c0de0fb2        0     1                 $t.2
c0de0fb3 c0de0fb3       b0     1                 handler_cmd_keccak_prng
c0de1062 c0de1062       38     2         build/nanos2/obj/app/src/handler/zkn_magicbox.o:(.text.handler_cmd_sample_in_ball)
c0de1062 c0de1062        0     1                 $t.3
c0de1063 c0de1063       38     1                 handler_cmd_sample_in_ball
c0de109a c0de109a       48     2         build/nanos2/obj/app/src/handler/zkn_magicbox.o:(.text.handler_cmd_keygen_core_dilithium)
c0de109a c0de109a        0     1                 $t.4
c0de109b c0de109b       48     1                 handler_cmd_keygen_core_dilithium
c0de10e2 c0de10e2       38     2         build/nanos2/obj/app/src/handler/zkn_magicbox.o:(.text.handler_cmd_keygen_dilithium)
c0de10e2 c0de10e2        0     1                 $t.5
c0de10e3 c0de10e3       38     1                 handler_cmd_keygen_dilithium
c0de111a c0de111a      134     2         build/nanos2/obj/app/src/handler/zkn_magicbox.o:(.text.handler_cmd_sign_dilithium)
c0de111a c0de111a        0     1                 $t.6
c0de111b c0de111b      134     1                 handler_cmd_sign_dilithium
c0de124e c0de124e       5c     2         build/nanos2/obj/app/src/handler/zkn_magicbox.o:(.text.handler_cmd_verify_dilithium)
c0de124e c0de124e        0     1                 $t.7
c0de124f c0de124f       5c     1                 handler_cmd_verify_dilithium
c0de12aa c0de12aa       32     2         build/nanos2/obj/app/src/handler/zkn_magicbox.o:(.text.handler_cmd_get_sig_chunk)
c0de12aa c0de12aa        0     1                 $t.8
c0de12ab c0de12ab       32     1                 handler_cmd_get_sig_chunk
c0de12dc c0de12dc       32     2         build/nanos2/obj/app/src/handler/zkn_magicbox.o:(.text.handler_cmd_get_pk_chunk)
c0de12dc c0de12dc        0     1                 $t.9
c0de12dd c0de12dd       32     1                 handler_cmd_get_pk_chunk
c0de130e c0de130e       b2     2         build/nanos2/obj/app/src/handler/zkn_magicbox.o:(.text.handler_get_mldsa_seed)
c0de130e c0de130e        0     1                 $t.10
c0de130f c0de130f       b2     1                 handler_get_mldsa_seed
c0de13c0 c0de13c0       76     2         build/nanos2/obj/app/src/handler/zkn_magicbox.o:(.text.handler_ecdsa_sign_hash)
c0de13c0 c0de13c0        0     1                 $t.11
c0de13c1 c0de13c1       76     1                 handler_ecdsa_sign_hash
c0de1436 c0de1436       b4     2         build/nanos2/obj/app/src/handler/zkn_magicbox.o:(.text.handler_hybrid_sign_hash)
c0de1436 c0de1436        0     1                 $t.12
c0de1437 c0de1437       b4     1                 handler_hybrid_sign_hash
c0de14ea c0de14ea       5a     2         build/nanos2/obj/app/src/helper/send_reponse.o:(.text.helper_send_response_pubkey)
c0de14ea c0de14ea        0     1                 $t.0
c0de14eb c0de14eb       5a     1                 helper_send_response_pubkey
c0de1544 c0de1544       50     2         build/nanos2/obj/app/src/helper/send_reponse.o:(.text.helper_send_response_sig)
c0de1544 c0de1544        0     1                 $t.1
c0de1545 c0de1545       50     1                 helper_send_response_sig
c0de1594 c0de1594       14     2         build/nanos2/obj/app/src/token/dynamic_token_info.o:(.text.init_dynamic_token_storage)
c0de1594 c0de1594        0     1                 $t.0
c0de1595 c0de1595       14     1                 init_dynamic_token_storage
c0de15a8 c0de15a8       88     2         build/nanos2/obj/app/src/token/dynamic_token_info.o:(.text.set_token_info)
c0de15a8 c0de15a8        0     1                 $t.1
c0de15a9 c0de15a9       88     1                 set_token_info
c0de1630 c0de1630       ac     2         build/nanos2/obj/app/src/token/dynamic_token_info.o:(.text.get_token_info)
c0de1630 c0de1630        0     1                 $t.2
c0de1631 c0de1631       ac     1                 get_token_info
c0de16dc c0de16dc       6e     4         build/nanos2/obj/app/src/token/token_db.o:(.text.get_hardcoded_token_info)
c0de16dc c0de16dc        0     1                 $t.0
c0de16dd c0de16dd       6e     1                 get_hardcoded_token_info
c0de174a c0de174a      24e     2         build/nanos2/obj/app/src/transaction/deserialize.o:(.text.transaction_deserialize)
c0de174a c0de174a        0     1                 $t.0
c0de174b c0de174b      24e     1                 transaction_deserialize
c0de1998 c0de1998       c6     4         build/nanos2/obj/app/src/transaction/utils.o:(.text.transaction_utils_check_encoding)
c0de1998 c0de1998        0     1                 $t.0
c0de1999 c0de1999       c6     1                 transaction_utils_check_encoding
c0de1a5e c0de1a5e       18     2         build/nanos2/obj/app/src/ui/action/validate.o:(.text.validate_pubkey)
c0de1a5e c0de1a5e        0     1                 $t.0
c0de1a5f c0de1a5f       18     1                 validate_pubkey
c0de1a76 c0de1a76       c2     2         build/nanos2/obj/app/src/ui/action/validate.o:(.text.validate_transaction)
c0de1a76 c0de1a76        0     1                 $t.1
c0de1a77 c0de1a77       c2     1                 validate_transaction
c0de1b38 c0de1b38      12a     2         build/nanos2/obj/app/src/ui/action/validate.o:(.text.validate_hybrid_signature)
c0de1b38 c0de1b38        0     1                 $t.2
c0de1b39 c0de1b39      12a     1                 validate_hybrid_signature
c0de1c62 c0de1c62        6     2         build/nanos2/obj/app/src/ui/menu_nbgl.o:(.text.app_quit)
c0de1c62 c0de1c62        0     1                 $t.0
c0de1c63 c0de1c63        6     1                 app_quit
c0de1c68 c0de1c68       b0     2         build/nanos2/obj/app/src/ui/menu_nbgl.o:(.text.ui_menu_main)
c0de1c68 c0de1c68        0     1                 $t.1
c0de1c69 c0de1c69       b0     1                 ui_menu_main
c0de1d18 c0de1d18       e0     2         build/nanos2/obj/app/src/ui/menu_nbgl.o:(.text.controls_callback)
c0de1d18 c0de1d18        0     1                 $t.2
c0de1d19 c0de1d19       e0     1                 controls_callback
c0de1df8 c0de1df8       92     2         build/nanos2/obj/app/src/ui/menu_nbgl.o:(.text.review_warning_choice)
c0de1df8 c0de1df8        0     1                 $t.3
c0de1df9 c0de1df9       92     1                 review_warning_choice
c0de1e8a c0de1e8a       b0     2         build/nanos2/obj/app/src/ui/nbgl_display_address.o:(.text.ui_display_address)
c0de1e8a c0de1e8a        0     1                 $t.0
c0de1e8b c0de1e8b       b0     1                 ui_display_address
c0de1f3a c0de1f3a       20     2         build/nanos2/obj/app/src/ui/nbgl_display_address.o:(.text.review_choice)
c0de1f3a c0de1f3a        0     1                 $t.1
c0de1f3b c0de1f3b       20     1                 review_choice
c0de1f5a c0de1f5a        c     2         build/nanos2/obj/app/src/ui/nbgl_display_transaction.o:(.text.ui_display_blind_signed_transaction)
c0de1f5a c0de1f5a        0     1                 $t.0
c0de1f5b c0de1f5b        c     1                 ui_display_blind_signed_transaction
c0de1f66 c0de1f66      216     2         build/nanos2/obj/app/src/ui/nbgl_display_transaction.o:(.text.ui_display_transaction_bs_token_choice)
c0de1f66 c0de1f66        0     1                 $t.1
c0de1f67 c0de1f67      216     1                 ui_display_transaction_bs_token_choice
c0de217c c0de217c        c     2         build/nanos2/obj/app/src/ui/nbgl_display_transaction.o:(.text.ui_display_transaction)
c0de217c c0de217c        0     1                 $t.2
c0de217d c0de217d        c     1                 ui_display_transaction
c0de2188 c0de2188        c     2         build/nanos2/obj/app/src/ui/nbgl_display_transaction.o:(.text.ui_display_token_transaction)
c0de2188 c0de2188        0     1                 $t.3
c0de2189 c0de2189        c     1                 ui_display_token_transaction
c0de2194 c0de2194       d2     2         build/nanos2/obj/app/src/ui/nbgl_display_transaction.o:(.text.ui_display_blind_sign_hash)
c0de2194 c0de2194        0     1                 $t.4
c0de2195 c0de2195       d2     1                 ui_display_blind_sign_hash
c0de2266 c0de2266       1c     2         build/nanos2/obj/app/src/ui/nbgl_display_transaction.o:(.text.review_choice)
c0de2266 c0de2266        0     1                 $t.5
c0de2267 c0de2267       1c     1                 review_choice
c0de2282 c0de2282       d2     2         build/nanos2/obj/app/src/ui/nbgl_display_transaction.o:(.text.ui_display_hybrid_sign_hash)
c0de2282 c0de2282        0     1                 $t.6
c0de2283 c0de2283       d2     1                 ui_display_hybrid_sign_hash
c0de2354 c0de2354       1c     2         build/nanos2/obj/app/src/ui/nbgl_display_transaction.o:(.text.review_choice_hybrid)
c0de2354 c0de2354        0     1                 $t.7
c0de2355 c0de2355       1c     1                 review_choice_hybrid
c0de2370 c0de2370      3a8     4         build/nanos2/obj/app/src/ui/nbgl_display_transaction.o:(.text.ui_display_hybrid_sign_userop)
c0de2370 c0de2370        0     1                 $t.8
c0de2371 c0de2371      3a8     1                 ui_display_hybrid_sign_userop
c0de2718 c0de2718        a     2         build/nanos2/obj/app/src/zknox/dilithium/fips202.o:(.text.pqcrystals_dilithium_fips202_ref_shake128_init)
c0de2718 c0de2718        0     1                 $t.0
c0de2719 c0de2719        a     1                 pqcrystals_dilithium_fips202_ref_shake128_init
c0de2724 c0de2724       ea     4         build/nanos2/obj/app/src/zknox/dilithium/fips202.o:(.text.pqcrystals_dilithium_fips202_ref_shake128_absorb)
c0de2724 c0de2724        0     1                 $t.1
c0de2725 c0de2725       ea     1                 pqcrystals_dilithium_fips202_ref_shake128_absorb
c0de280e c0de280e       58     2         build/nanos2/obj/app/src/zknox/dilithium/fips202.o:(.text.pqcrystals_dilithium_fips202_ref_shake128_finalize)
c0de280e c0de280e        0     1                 $t.2
c0de280f c0de280f       58     1                 pqcrystals_dilithium_fips202_ref_shake128_finalize
c0de2868 c0de2868       78     4         build/nanos2/obj/app/src/zknox/dilithium/fips202.o:(.text.pqcrystals_dilithium_fips202_ref_shake128_squeeze)
c0de2868 c0de2868        0     1                 $t.3
c0de2869 c0de2869       78     1                 pqcrystals_dilithium_fips202_ref_shake128_squeeze
c0de28e0 c0de28e0      160     4         build/nanos2/obj/app/src/zknox/dilithium/fips202.o:(.text.keccak_absorb_once)
c0de28e0 c0de28e0        0     1                 $t.5
c0de28e1 c0de28e1      160     1                 keccak_absorb_once
c0de2a40 c0de2a40       6c     4         build/nanos2/obj/app/src/zknox/dilithium/fips202.o:(.text.pqcrystals_dilithium_fips202_ref_shake128_squeezeblocks)
c0de2a40 c0de2a40        0     1                 $t.6
c0de2a41 c0de2a41       6c     1                 pqcrystals_dilithium_fips202_ref_shake128_squeezeblocks
c0de2aac c0de2aac        a     2         build/nanos2/obj/app/src/zknox/dilithium/fips202.o:(.text.pqcrystals_dilithium_fips202_ref_shake256_init)
c0de2aac c0de2aac        0     1                 $t.7
c0de2aad c0de2aad        a     1                 pqcrystals_dilithium_fips202_ref_shake256_init
c0de2ab8 c0de2ab8       ea     4         build/nanos2/obj/app/src/zknox/dilithium/fips202.o:(.text.pqcrystals_dilithium_fips202_ref_shake256_absorb)
c0de2ab8 c0de2ab8        0     1                 $t.8
c0de2ab9 c0de2ab9       ea     1                 pqcrystals_dilithium_fips202_ref_shake256_absorb
c0de2ba2 c0de2ba2       58     2         build/nanos2/obj/app/src/zknox/dilithium/fips202.o:(.text.pqcrystals_dilithium_fips202_ref_shake256_finalize)
c0de2ba2 c0de2ba2        0     1                 $t.9
c0de2ba3 c0de2ba3       58     1                 pqcrystals_dilithium_fips202_ref_shake256_finalize
c0de2bfc c0de2bfc       78     4         build/nanos2/obj/app/src/zknox/dilithium/fips202.o:(.text.pqcrystals_dilithium_fips202_ref_shake256_squeeze)
c0de2bfc c0de2bfc        0     1                 $t.10
c0de2bfd c0de2bfd       78     1                 pqcrystals_dilithium_fips202_ref_shake256_squeeze
c0de2c74 c0de2c74       6c     4         build/nanos2/obj/app/src/zknox/dilithium/fips202.o:(.text.pqcrystals_dilithium_fips202_ref_shake256_squeezeblocks)
c0de2c74 c0de2c74        0     1                 $t.12
c0de2c75 c0de2c75       6c     1                 pqcrystals_dilithium_fips202_ref_shake256_squeezeblocks
c0de2ce0 c0de2ce0      116     4         build/nanos2/obj/app/src/zknox/dilithium/fips202.o:(.text.pqcrystals_dilithium_fips202_ref_shake256)
c0de2ce0 c0de2ce0        0     1                 $t.14
c0de2ce1 c0de2ce1      116     1                 pqcrystals_dilithium_fips202_ref_shake256
c0de2df8 c0de2df8      d04     4         build/nanos2/obj/app/src/zknox/dilithium/fips202.o:(.text.KeccakF1600_StatePermute)
c0de2df8 c0de2df8        0     1                 $t.16
c0de2df9 c0de2df9      d04     1                 KeccakF1600_StatePermute
c0de3afc c0de3afc        c     2         build/nanos2/obj/app/src/zknox/dilithium/keccak256.o:(.text.keccak_init)
c0de3afc c0de3afc        0     1                 $t.1
c0de3afd c0de3afd        c     1                 keccak_init
c0de3b08 c0de3b08        8     2         build/nanos2/obj/app/src/zknox/dilithium/keccak256.o:(.text.keccak_update)
c0de3b08 c0de3b08        0     1                 $t.2
c0de3b09 c0de3b09        8     1                 keccak_update
c0de3b10 c0de3b10        8     2         build/nanos2/obj/app/src/zknox/dilithium/keccak256.o:(.text.keccak_final)
c0de3b10 c0de3b10        0     1                 $t.3
c0de3b11 c0de3b11        8     1                 keccak_final
c0de3b18 c0de3b18       26     2         build/nanos2/obj/app/src/zknox/dilithium/keccak_prng.o:(.text.inner_keccak256_init)
c0de3b18 c0de3b18        0     1                 $t.0
c0de3b19 c0de3b19       26     1                 inner_keccak256_init
c0de3b3e c0de3b3e       2c     2         build/nanos2/obj/app/src/zknox/dilithium/keccak_prng.o:(.text.inner_keccak256_inject)
c0de3b3e c0de3b3e        0     1                 $t.1
c0de3b3f c0de3b3f       2c     1                 inner_keccak256_inject
c0de3b6a c0de3b6a       2e     2         build/nanos2/obj/app/src/zknox/dilithium/keccak_prng.o:(.text.inner_keccak256_flip)
c0de3b6a c0de3b6a        0     1                 $t.2
c0de3b6b c0de3b6b       2e     1                 inner_keccak256_flip
c0de3b98 c0de3b98      12c     4         build/nanos2/obj/app/src/zknox/dilithium/keccak_prng.o:(.text.inner_keccak256_extract)
c0de3b98 c0de3b98        0     1                 $t.3
c0de3b99 c0de3b99      12c     1                 inner_keccak256_extract
c0de3cc4 c0de3cc4       38     4         build/nanos2/obj/app/src/zknox/dilithium/lowram.o:(.text.pqcrystals_dilithium2_lowram_pack_sig_h)
c0de3cc4 c0de3cc4        0     1                 $t.3
c0de3cc5 c0de3cc5       38     1                 pqcrystals_dilithium2_lowram_pack_sig_h
c0de3cfc c0de3cfc       1e     4         build/nanos2/obj/app/src/zknox/dilithium/lowram.o:(.text.pqcrystals_dilithium2_lowram_pack_sig_h_zero)
c0de3cfc c0de3cfc        0     1                 $t.4
c0de3cfd c0de3cfd       1e     1                 pqcrystals_dilithium2_lowram_pack_sig_h_zero
c0de3d1c c0de3d1c       78     4         build/nanos2/obj/app/src/zknox/dilithium/lowram.o:(.text.poly_challenge_compress)
c0de3d1c c0de3d1c        0     1                 $t.8
c0de3d1d c0de3d1d       78     1                 poly_challenge_compress
c0de3d94 c0de3d94       72     4         build/nanos2/obj/app/src/zknox/dilithium/lowram.o:(.text.poly_challenge_decompress)
c0de3d94 c0de3d94        0     1                 $t.9
c0de3d95 c0de3d95       72     1                 poly_challenge_decompress
c0de3e08 c0de3e08      112     4         build/nanos2/obj/app/src/zknox/dilithium/lowram.o:(.text.poly_schoolbook)
c0de3e08 c0de3e08        0     1                 $t.10
c0de3e09 c0de3e09      112     1                 poly_schoolbook
c0de3f1a c0de3f1a       9e     2         build/nanos2/obj/app/src/zknox/dilithium/lowram.o:(.text.polyt0_unpack_idx)
c0de3f1a c0de3f1a        0     1                 $t.11
c0de3f1b c0de3f1b       9e     1                 polyt0_unpack_idx
c0de3fb8 c0de3fb8      244     4         build/nanos2/obj/app/src/zknox/dilithium/lowram.o:(.text.poly_schoolbook_t1)
c0de3fb8 c0de3fb8        0     1                 $t.12
c0de3fb9 c0de3fb9      244     1                 poly_schoolbook_t1
c0de41fc c0de41fc       3a     4         build/nanos2/obj/app/src/zknox/dilithium/lowram.o:(.text.polyw_pack)
c0de41fc c0de41fc        0     1                 $t.13
c0de41fd c0de41fd       3a     1                 polyw_pack
c0de4238 c0de4238       2c     4         build/nanos2/obj/app/src/zknox/dilithium/lowram.o:(.text.polyw_unpack)
c0de4238 c0de4238        0     1                 $t.14
c0de4239 c0de4239       2c     1                 polyw_unpack
c0de4264 c0de4264       2e     4         build/nanos2/obj/app/src/zknox/dilithium/lowram.o:(.text.polyw_sub)
c0de4264 c0de4264        0     1                 $t.15
c0de4265 c0de4265       2e     1                 polyw_sub
c0de4294 c0de4294       34     4         build/nanos2/obj/app/src/zknox/dilithium/lowram.o:(.text.poly_highbits)
c0de4294 c0de4294        0     1                 $t.16
c0de4295 c0de4295       34     1                 poly_highbits
c0de42c8 c0de42c8       5e     4         build/nanos2/obj/app/src/zknox/dilithium/lowram.o:(.text.poly_lowbits)
c0de42c8 c0de42c8        0     1                 $t.17
c0de42c9 c0de42c9       5e     1                 poly_lowbits
c0de4326 c0de4326       12     2         build/nanos2/obj/app/src/zknox/dilithium/lowram.o:(.text.unpack_sk_s1)
c0de4326 c0de4326        0     1                 $t.18
c0de4327 c0de4327       12     1                 unpack_sk_s1
c0de4338 c0de4338       14     2         build/nanos2/obj/app/src/zknox/dilithium/lowram.o:(.text.unpack_sk_s2)
c0de4338 c0de4338        0     1                 $t.19
c0de4339 c0de4339       14     1                 unpack_sk_s2
c0de434c c0de434c       c4     4         build/nanos2/obj/app/src/zknox/dilithium/lowram.o:(.text.poly_uniform_pointwise_montgomery_polywadd_lowram)
c0de434c c0de434c        0     1                 $t.20
c0de434d c0de434d       c4     1                 poly_uniform_pointwise_montgomery_polywadd_lowram
c0de4410 c0de4410       aa     4         build/nanos2/obj/app/src/zknox/dilithium/lowram.o:(.text.poly_uniform_gamma1_lowram)
c0de4410 c0de4410        0     1                 $t.22
c0de4411 c0de4411       aa     1                 poly_uniform_gamma1_lowram
c0de44bc c0de44bc       c2     4         build/nanos2/obj/app/src/zknox/dilithium/lowram.o:(.text.poly_uniform_gamma1_add_lowram)
c0de44bc c0de44bc        0     1                 $t.24
c0de44bd c0de44bd       c2     1                 poly_uniform_gamma1_add_lowram
c0de4580 c0de4580       68     4         build/nanos2/obj/app/src/zknox/dilithium/lowram.o:(.text.poly_make_hint_lowram)
c0de4580 c0de4580        0     1                 $t.26
c0de4581 c0de4581       68     1                 poly_make_hint_lowram
c0de45e8 c0de45e8       b4     4         build/nanos2/obj/app/src/zknox/dilithium/lowram.o:(.text.unpack_sig_h_indices)
c0de45e8 c0de45e8        0     1                 $t.27
c0de45e9 c0de45e9       b4     1                 unpack_sig_h_indices
c0de469c c0de469c       48     4         build/nanos2/obj/app/src/zknox/dilithium/lowram.o:(.text.poly_use_hint_lowram)
c0de469c c0de469c        0     1                 $t.28
c0de469d c0de469d       48     1                 poly_use_hint_lowram
c0de46e4 c0de46e4       16     4         build/nanos2/obj/app/src/zknox/dilithium/lowram.o:(.text.pack_pk_rho)
c0de46e4 c0de46e4        0     1                 $t.29
c0de46e5 c0de46e5       16     1                 pack_pk_rho
c0de46fa c0de46fa       12     2         build/nanos2/obj/app/src/zknox/dilithium/lowram.o:(.text.pack_pk_t1)
c0de46fa c0de46fa        0     1                 $t.30
c0de46fb c0de46fb       12     1                 pack_pk_t1
c0de470c c0de470c       12     2         build/nanos2/obj/app/src/zknox/dilithium/lowram.o:(.text.pack_sk_s1)
c0de470c c0de470c        0     1                 $t.31
c0de470d c0de470d       12     1                 pack_sk_s1
c0de471e c0de471e       14     2         build/nanos2/obj/app/src/zknox/dilithium/lowram.o:(.text.pack_sk_s2)
c0de471e c0de471e        0     1                 $t.32
c0de471f c0de471f       14     1                 pack_sk_s2
c0de4732 c0de4732       14     2         build/nanos2/obj/app/src/zknox/dilithium/lowram.o:(.text.pack_sk_t0)
c0de4732 c0de4732        0     1                 $t.33
c0de4733 c0de4733       14     1                 pack_sk_t0
c0de4748 c0de4748       16     4         build/nanos2/obj/app/src/zknox/dilithium/lowram.o:(.text.pack_sk_rho)
c0de4748 c0de4748        0     1                 $t.34
c0de4749 c0de4749       16     1                 pack_sk_rho
c0de4760 c0de4760       16     4         build/nanos2/obj/app/src/zknox/dilithium/lowram.o:(.text.pack_sk_key)
c0de4760 c0de4760        0     1                 $t.35
c0de4761 c0de4761       16     1                 pack_sk_key
c0de4778 c0de4778       16     4         build/nanos2/obj/app/src/zknox/dilithium/lowram.o:(.text.pack_sk_tr)
c0de4778 c0de4778        0     1                 $t.36
c0de4779 c0de4779       16     1                 pack_sk_tr
c0de4790 c0de4790       c6     4         build/nanos2/obj/app/src/zknox/dilithium/lowram.o:(.text.poly_challenge_lowram)
c0de4790 c0de4790        0     1                 $t.37
c0de4791 c0de4791       c6     1                 poly_challenge_lowram
c0de4858 c0de4858       32     4         build/nanos2/obj/app/src/zknox/dilithium/lowram.o:(.text.pqcrystals_dilithium2_lowram_poly_pointwise_acc_montgomery)
c0de4858 c0de4858        0     1                 $t.38
c0de4859 c0de4859       32     1                 pqcrystals_dilithium2_lowram_poly_pointwise_acc_montgomery
c0de488c c0de488c       7e     4         build/nanos2/obj/app/src/zknox/dilithium/ntt.o:(.text.pqcrystals_dilithium2_lowram_ntt)
c0de488c c0de488c        0     1                 $t.0
c0de488d c0de488d       7e     1                 pqcrystals_dilithium2_lowram_ntt
c0de490c c0de490c       9e     4         build/nanos2/obj/app/src/zknox/dilithium/ntt.o:(.text.pqcrystals_dilithium2_lowram_invntt_tomont)
c0de490c c0de490c        0     1                 $t.1
c0de490d c0de490d       9e     1                 pqcrystals_dilithium2_lowram_invntt_tomont
c0de49ac c0de49ac       18     4         build/nanos2/obj/app/src/zknox/dilithium/poly.o:(.text.pqcrystals_dilithium2_lowram_poly_reduce)
c0de49ac c0de49ac        0     1                 $t.0
c0de49ad c0de49ad       18     1                 pqcrystals_dilithium2_lowram_poly_reduce
c0de49c4 c0de49c4       18     4         build/nanos2/obj/app/src/zknox/dilithium/poly.o:(.text.pqcrystals_dilithium2_lowram_poly_caddq)
c0de49c4 c0de49c4        0     1                 $t.1
c0de49c5 c0de49c5       18     1                 pqcrystals_dilithium2_lowram_poly_caddq
c0de49dc c0de49dc       22     4         build/nanos2/obj/app/src/zknox/dilithium/poly.o:(.text.pqcrystals_dilithium2_lowram_poly_add)
c0de49dc c0de49dc        0     1                 $t.2
c0de49dd c0de49dd       22     1                 pqcrystals_dilithium2_lowram_poly_add
c0de49fe c0de49fe        8     2         build/nanos2/obj/app/src/zknox/dilithium/poly.o:(.text.pqcrystals_dilithium2_lowram_poly_ntt)
c0de49fe c0de49fe        0     1                 $t.5
c0de49ff c0de49ff        8     1                 pqcrystals_dilithium2_lowram_poly_ntt
c0de4a06 c0de4a06        8     2         build/nanos2/obj/app/src/zknox/dilithium/poly.o:(.text.pqcrystals_dilithium2_lowram_poly_invntt_tomont)
c0de4a06 c0de4a06        0     1                 $t.6
c0de4a07 c0de4a07        8     1                 pqcrystals_dilithium2_lowram_poly_invntt_tomont
c0de4a10 c0de4a10       2c     4         build/nanos2/obj/app/src/zknox/dilithium/poly.o:(.text.pqcrystals_dilithium2_lowram_poly_pointwise_montgomery)
c0de4a10 c0de4a10        0     1                 $t.7
c0de4a11 c0de4a11       2c     1                 pqcrystals_dilithium2_lowram_poly_pointwise_montgomery
c0de4a3c c0de4a3c       22     4         build/nanos2/obj/app/src/zknox/dilithium/poly.o:(.text.pqcrystals_dilithium2_lowram_poly_power2round)
c0de4a3c c0de4a3c        0     1                 $t.8
c0de4a3d c0de4a3d       22     1                 pqcrystals_dilithium2_lowram_poly_power2round
c0de4a60 c0de4a60       32     4         build/nanos2/obj/app/src/zknox/dilithium/poly.o:(.text.pqcrystals_dilithium2_lowram_poly_chknorm)
c0de4a60 c0de4a60        0     1                 $t.12
c0de4a61 c0de4a61       32     1                 pqcrystals_dilithium2_lowram_poly_chknorm
c0de4a94 c0de4a94       fa     4         build/nanos2/obj/app/src/zknox/dilithium/poly.o:(.text.pqcrystals_dilithium2_lowram_poly_uniform)
c0de4a94 c0de4a94        0     1                 $t.13
c0de4a95 c0de4a95       fa     1                 pqcrystals_dilithium2_lowram_poly_uniform
c0de4b90 c0de4b90       ea     4         build/nanos2/obj/app/src/zknox/dilithium/poly.o:(.text.pqcrystals_dilithium2_lowram_poly_uniform_eta)
c0de4b90 c0de4b90        0     1                 $t.14
c0de4b91 c0de4b91       ea     1                 pqcrystals_dilithium2_lowram_poly_uniform_eta
c0de4c7c c0de4c7c       9e     4         build/nanos2/obj/app/src/zknox/dilithium/poly.o:(.text.pqcrystals_dilithium2_lowram_polyz_unpack)
c0de4c7c c0de4c7c        0     1                 $t.16
c0de4c7d c0de4c7d       9e     1                 pqcrystals_dilithium2_lowram_polyz_unpack
c0de4d1c c0de4d1c       c6     4         build/nanos2/obj/app/src/zknox/dilithium/poly.o:(.text.pqcrystals_dilithium2_lowram_poly_challenge)
c0de4d1c c0de4d1c        0     1                 $t.17
c0de4d1d c0de4d1d       c6     1                 pqcrystals_dilithium2_lowram_poly_challenge
c0de4de4 c0de4de4       86     4         build/nanos2/obj/app/src/zknox/dilithium/poly.o:(.text.pqcrystals_dilithium2_lowram_polyeta_pack)
c0de4de4 c0de4de4        0     1                 $t.18
c0de4de5 c0de4de5       86     1                 pqcrystals_dilithium2_lowram_polyeta_pack
c0de4e6c c0de4e6c       4e     4         build/nanos2/obj/app/src/zknox/dilithium/poly.o:(.text.pqcrystals_dilithium2_lowram_polyt1_pack)
c0de4e6c c0de4e6c        0     1                 $t.21
c0de4e6d c0de4e6d       4e     1                 pqcrystals_dilithium2_lowram_polyt1_pack
c0de4ebc c0de4ebc       aa     4         build/nanos2/obj/app/src/zknox/dilithium/poly.o:(.text.pqcrystals_dilithium2_lowram_polyt0_pack)
c0de4ebc c0de4ebc        0     1                 $t.23
c0de4ebd c0de4ebd       aa     1                 pqcrystals_dilithium2_lowram_polyt0_pack
c0de4f68 c0de4f68       66     4         build/nanos2/obj/app/src/zknox/dilithium/poly.o:(.text.pqcrystals_dilithium2_lowram_polyz_pack)
c0de4f68 c0de4f68        0     1                 $t.25
c0de4f69 c0de4f69       66     1                 pqcrystals_dilithium2_lowram_polyz_pack
c0de4fd0 c0de4fd0       48     4         build/nanos2/obj/app/src/zknox/dilithium/poly.o:(.text.pqcrystals_dilithium2_lowram_polyw1_pack)
c0de4fd0 c0de4fd0        0     1                 $t.26
c0de4fd1 c0de4fd1       48     1                 pqcrystals_dilithium2_lowram_polyw1_pack
c0de5018 c0de5018        8     2         build/nanos2/obj/app/src/zknox/dilithium/randombytes.o:(.text.randombytes)
c0de5018 c0de5018        0     1                 $t.0
c0de5019 c0de5019        8     1                 randombytes
c0de5020 c0de5020       1a     2         build/nanos2/obj/app/src/zknox/dilithium/reduce.o:(.text.pqcrystals_dilithium2_lowram_montgomery_reduce)
c0de5020 c0de5020        0     1                 $t.0
c0de5021 c0de5021       1a     1                 pqcrystals_dilithium2_lowram_montgomery_reduce
c0de503a c0de503a       14     2         build/nanos2/obj/app/src/zknox/dilithium/reduce.o:(.text.pqcrystals_dilithium2_lowram_reduce32)
c0de503a c0de503a        0     1                 $t.1
c0de503b c0de503b       14     1                 pqcrystals_dilithium2_lowram_reduce32
c0de504e c0de504e       10     2         build/nanos2/obj/app/src/zknox/dilithium/reduce.o:(.text.pqcrystals_dilithium2_lowram_caddq)
c0de504e c0de504e        0     1                 $t.2
c0de504f c0de504f       10     1                 pqcrystals_dilithium2_lowram_caddq
c0de505e c0de505e       22     2         build/nanos2/obj/app/src/zknox/dilithium/reduce.o:(.text.pqcrystals_dilithium2_lowram_freeze)
c0de505e c0de505e        0     1                 $t.3
c0de505f c0de505f       22     1                 pqcrystals_dilithium2_lowram_freeze
c0de5080 c0de5080       18     2         build/nanos2/obj/app/src/zknox/dilithium/rounding.o:(.text.pqcrystals_dilithium2_lowram_power2round)
c0de5080 c0de5080        0     1                 $t.0
c0de5081 c0de5081       18     1                 pqcrystals_dilithium2_lowram_power2round
c0de5098 c0de5098       5e     2         build/nanos2/obj/app/src/zknox/dilithium/rounding.o:(.text.pqcrystals_dilithium2_lowram_use_hint)
c0de5098 c0de5098        0     1                 $t.3
c0de5099 c0de5099       5e     1                 pqcrystals_dilithium2_lowram_use_hint
c0de50f6 c0de50f6       22     2         build/nanos2/obj/app/src/zknox/dilithium/sign.o:(.text.pqcrystals_dilithium2_lowram_keypair)
c0de50f6 c0de50f6        0     1                 $t.0
c0de50f7 c0de50f7       22     1                 pqcrystals_dilithium2_lowram_keypair
c0de5118 c0de5118      1c4     4         build/nanos2/obj/app/src/zknox/dilithium/sign.o:(.text.crypto_sign_keypair_core)
c0de5118 c0de5118        0     1                 $t.1
c0de5119 c0de5119      1c4     1                 crypto_sign_keypair_core
c0de52dc c0de52dc       5a     2         build/nanos2/obj/app/src/zknox/dilithium/sign.o:(.text.crypto_sign_signature_init)
c0de52dc c0de52dc        0     1                 $t.2
c0de52dd c0de52dd       5a     1                 crypto_sign_signature_init
c0de5336 c0de5336       18     2         build/nanos2/obj/app/src/zknox/dilithium/sign.o:(.text.crypto_sign_signature_absorb)
c0de5336 c0de5336        0     1                 $t.3
c0de5337 c0de5337       18     1                 crypto_sign_signature_absorb
c0de5350 c0de5350      320     4         build/nanos2/obj/app/src/zknox/dilithium/sign.o:(.text.crypto_sign_signature_core)
c0de5350 c0de5350        0     1                 $t.4
c0de5351 c0de5351      320     1                 crypto_sign_signature_core
c0de5670 c0de5670      292     4         build/nanos2/obj/app/src/zknox/dilithium/sign.o:(.text.pqcrystals_dilithium2_lowram_verify)
c0de5670 c0de5670        0     1                 $t.7
c0de5671 c0de5671      292     1                 pqcrystals_dilithium2_lowram_verify
c0de5904 c0de5904       6a     4         build/nanos2/obj/app/src/zknox/dilithium/sign.o:(.text.pqcrystals_dilithium2_lowram_open)
c0de5904 c0de5904        0     1                 $t.8
c0de5905 c0de5905       6a     1                 pqcrystals_dilithium2_lowram_open
c0de5970 c0de5970       96     4         build/nanos2/obj/app/src/zknox/dilithium/smallntt_3329.o:(.text.small_ntt)
c0de5970 c0de5970        0     1                 $t.0
c0de5971 c0de5971       96     1                 small_ntt
c0de5a08 c0de5a08      104     4         build/nanos2/obj/app/src/zknox/dilithium/smallntt_3329.o:(.text.small_invntt_tomont)
c0de5a08 c0de5a08        0     1                 $t.1
c0de5a09 c0de5a09      104     1                 small_invntt_tomont
c0de5b0c c0de5b0c       78     2         build/nanos2/obj/app/src/zknox/dilithium/smallntt_3329.o:(.text.small_basemul)
c0de5b0c c0de5b0c        0     1                 $t.2
c0de5b0d c0de5b0d       78     1                 small_basemul
c0de5b84 c0de5b84       18     4         build/nanos2/obj/app/src/zknox/dilithium/smallpoly.o:(.text.poly_small_ntt_copy)
c0de5b84 c0de5b84        0     1                 $t.0
c0de5b85 c0de5b85       18     1                 poly_small_ntt_copy
c0de5b9c c0de5b9c       74     4         build/nanos2/obj/app/src/zknox/dilithium/smallpoly.o:(.text.poly_small_basemul_invntt)
c0de5b9c c0de5b9c        0     1                 $t.4
c0de5b9d c0de5b9d       74     1                 poly_small_basemul_invntt
c0de5c10 c0de5c10       b6     4         build/nanos2/obj/app/src/zknox/dilithium/smallpoly.o:(.text.small_polyeta_unpack)
c0de5c10 c0de5c10        0     1                 $t.6
c0de5c11 c0de5c11       b6     1                 small_polyeta_unpack
c0de5cc6 c0de5cc6       38     2         build/nanos2/obj/app/src/zknox/dilithium/symmetric-shake.o:(.text.pqcrystals_dilithium2_lowram_dilithium_shake128_stream_init)
c0de5cc6 c0de5cc6        0     1                 $t.0
c0de5cc7 c0de5cc7       38     1                 pqcrystals_dilithium2_lowram_dilithium_shake128_stream_init
c0de5cfe c0de5cfe       38     2         build/nanos2/obj/app/src/zknox/dilithium/symmetric-shake.o:(.text.pqcrystals_dilithium2_lowram_dilithium_shake256_stream_init)
c0de5cfe c0de5cfe        0     1                 $t.1
c0de5cff c0de5cff       38     1                 pqcrystals_dilithium2_lowram_dilithium_shake256_stream_init
c0de5d38 c0de5d38       5e     4         build/nanos2/obj/app/src/zknox/keys/derive.o:(.text.mldsa_derive_seed)
c0de5d38 c0de5d38        0     1                 $t.0
c0de5d39 c0de5d39       5e     1                 mldsa_derive_seed
c0de5d96 c0de5d96       a2     2         build/nanos2/obj/sdk/io/src/os_io_default_apdu.o:(.text.os_io_handle_default_apdu)
c0de5d96 c0de5d96        0     1                 $t.0
c0de5d97 c0de5d97       a2     1                 os_io_handle_default_apdu
c0de5e38 c0de5e38       70     2         build/nanos2/obj/sdk/io/src/os_io_default_apdu.o:(.text.get_version)
c0de5e38 c0de5e38        0     1                 $t.1
c0de5e39 c0de5e39       70     1                 get_version
c0de5ea8 c0de5ea8       40     2         build/nanos2/obj/sdk/io/src/os_io_seph_cmd.o:(.text.os_io_seph_cmd_printf)
c0de5ea8 c0de5ea8        0     1                 $t.11
c0de5ea9 c0de5ea9       40     1                 os_io_seph_cmd_printf
c0de5ee8 c0de5ee8       1e     2         build/nanos2/obj/sdk/io/src/os_io_seph_ux.o:(.text.io_process_itc_ux_event)
c0de5ee8 c0de5ee8        0     1                 $t.1
c0de5ee9 c0de5ee9       1e     1                 io_process_itc_ux_event
c0de5f06 c0de5f06       ac     2         build/nanos2/obj/sdk/io_legacy/src/os_io_legacy.o:(.text.io_seproxyhal_io_heartbeat)
c0de5f06 c0de5f06        0     1                 $t.3
c0de5f07 c0de5f07       ac     1                 io_seproxyhal_io_heartbeat
c0de5fb2 c0de5fb2       30     2         build/nanos2/obj/sdk/io_legacy/src/os_io_legacy.o:(.text.io_legacy_apdu_tx)
c0de5fb2 c0de5fb2        0     1                 $t.9
c0de5fb3 c0de5fb3       30     1                 io_legacy_apdu_tx
c0de5fe2 c0de5fe2      1e0     2         build/nanos2/obj/sdk/io_legacy/src/os_io_legacy.o:(.text.io_legacy_apdu_rx)
c0de5fe2 c0de5fe2        0     1                 $t.10
c0de5fe3 c0de5fe3      1e0     1                 io_legacy_apdu_rx
c0de61c2 c0de61c2       40     2         build/nanos2/obj/sdk/io_legacy/src/os_io_legacy.o:(.text.io_seproxyhal_init)
c0de61c2 c0de61c2        0     1                 $t.11
c0de61c3 c0de61c3       40     1                 io_seproxyhal_init
c0de6202 c0de6202       92     2         build/nanos2/obj/sdk/lib_nbgl/src/nbgl_layout_nanos.o:(.text.nbgl_layoutGet)
c0de6202 c0de6202        0     1                 $t.1
c0de6203 c0de6203       92     1                 nbgl_layoutGet
c0de6294 c0de6294       50     4         build/nanos2/obj/sdk/lib_nbgl/src/nbgl_layout_nanos.o:(.text.buttonCallback)
c0de6294 c0de6294        0     1                 $t.2
c0de6295 c0de6295       50     1                 buttonCallback
c0de62e4 c0de62e4       c0     2         build/nanos2/obj/sdk/lib_nbgl/src/nbgl_layout_nanos.o:(.text.nbgl_layoutAddNavigation)
c0de62e4 c0de62e4        0     1                 $t.3
c0de62e5 c0de62e5       c0     1                 nbgl_layoutAddNavigation
c0de63a4 c0de63a4      410     2         build/nanos2/obj/sdk/lib_nbgl/src/nbgl_layout_nanos.o:(.text.nbgl_layoutAddText)
c0de63a4 c0de63a4        0     1                 $t.4
c0de63a5 c0de63a5      410     1                 nbgl_layoutAddText
c0de67b4 c0de67b4       ce     4         build/nanos2/obj/sdk/lib_nbgl/src/nbgl_layout_nanos.o:(.text.nbgl_layoutAddMenuList)
c0de67b4 c0de67b4        0     1                 $t.5
c0de67b5 c0de67b5       ce     1                 nbgl_layoutAddMenuList
c0de6882 c0de6882      3a6     2         build/nanos2/obj/sdk/lib_nbgl/src/nbgl_layout_nanos.o:(.text.nbgl_layoutAddCenteredInfo)
c0de6882 c0de6882        0     1                 $t.6
c0de6883 c0de6883      3a6     1                 nbgl_layoutAddCenteredInfo
c0de6c28 c0de6c28      1f8     2         build/nanos2/obj/sdk/lib_nbgl/src/nbgl_layout_nanos.o:(.text.nbgl_layoutAddSwitch)
c0de6c28 c0de6c28        0     1                 $t.9
c0de6c29 c0de6c29      1f8     1                 nbgl_layoutAddSwitch
c0de6e20 c0de6e20       14     2         build/nanos2/obj/sdk/lib_nbgl/src/nbgl_layout_nanos.o:(.text.nbgl_layoutDraw)
c0de6e20 c0de6e20        0     1                 $t.10
c0de6e21 c0de6e21       14     1                 nbgl_layoutDraw
c0de6e34 c0de6e34       1e     2         build/nanos2/obj/sdk/lib_nbgl/src/nbgl_layout_nanos.o:(.text.nbgl_layoutRelease)
c0de6e34 c0de6e34        0     1                 $t.11
c0de6e35 c0de6e35       1e     1                 nbgl_layoutRelease
c0de6e54 c0de6e54       fa     4         build/nanos2/obj/sdk/lib_nbgl/src/nbgl_step.o:(.text.nbgl_stepDrawText)
c0de6e54 c0de6e54        0     1                 $t.0
c0de6e55 c0de6e55       fa     1                 nbgl_stepDrawText
c0de6f50 c0de6f50      20c     4         build/nanos2/obj/sdk/lib_nbgl/src/nbgl_step.o:(.text.displayTextPage)
c0de6f50 c0de6f50        0     1                 $t.1
c0de6f51 c0de6f51      20c     1                 displayTextPage
c0de715c c0de715c      16a     4         build/nanos2/obj/sdk/lib_nbgl/src/nbgl_step.o:(.text.nbgl_stepDrawCenteredInfo)
c0de715c c0de715c        0     1                 $t.2
c0de715d c0de715d      16a     1                 nbgl_stepDrawCenteredInfo
c0de72c8 c0de72c8       7e     4         build/nanos2/obj/sdk/lib_nbgl/src/nbgl_step.o:(.text.actionCallback)
c0de72c8 c0de72c8        0     1                 $t.3
c0de72c9 c0de72c9       7e     1                 actionCallback
c0de7348 c0de7348       c2     4         build/nanos2/obj/sdk/lib_nbgl/src/nbgl_step.o:(.text.nbgl_stepDrawMenuList)
c0de7348 c0de7348        0     1                 $t.4
c0de7349 c0de7349       c2     1                 nbgl_stepDrawMenuList
c0de740a c0de740a       76     2         build/nanos2/obj/sdk/lib_nbgl/src/nbgl_step.o:(.text.displayMenuList)
c0de740a c0de740a        0     1                 $t.5
c0de740b c0de740b       76     1                 displayMenuList
c0de7480 c0de7480      16a     4         build/nanos2/obj/sdk/lib_nbgl/src/nbgl_step.o:(.text.nbgl_stepDrawSwitch)
c0de7480 c0de7480        0     1                 $t.7
c0de7481 c0de7481      16a     1                 nbgl_stepDrawSwitch
c0de75ea c0de75ea       1a     2         build/nanos2/obj/sdk/lib_nbgl/src/nbgl_step.o:(.text.nbgl_stepRelease)
c0de75ea c0de75ea        0     1                 $t.8
c0de75eb c0de75eb       1a     1                 nbgl_stepRelease
c0de7604 c0de7604       62     4         build/nanos2/obj/sdk/lib_nbgl/src/nbgl_step.o:(.text.menuListActionCallback)
c0de7604 c0de7604        0     1                 $t.9
c0de7605 c0de7605       62     1                 menuListActionCallback
c0de7666 c0de7666       ce     2         build/nanos2/obj/sdk/lib_nbgl/src/nbgl_use_case_nanos.o:(.text.nbgl_useCaseHomeAndSettings)
c0de7666 c0de7666        0     1                 $t.9
c0de7667 c0de7667       ce     1                 nbgl_useCaseHomeAndSettings
c0de7734 c0de7734       a2     4         build/nanos2/obj/sdk/lib_nbgl/src/nbgl_use_case_nanos.o:(.text.startUseCaseSettingsAtPage)
c0de7734 c0de7734        0     1                 $t.10
c0de7735 c0de7735       a2     1                 startUseCaseSettingsAtPage
c0de77d6 c0de77d6       8e     2         build/nanos2/obj/sdk/lib_nbgl/src/nbgl_use_case_nanos.o:(.text.startUseCaseHome)
c0de77d6 c0de77d6        0     1                 $t.11
c0de77d7 c0de77d7       8e     1                 startUseCaseHome
c0de7864 c0de7864       5c     2         build/nanos2/obj/sdk/lib_nbgl/src/nbgl_use_case_nanos.o:(.text.nbgl_useCaseReview)
c0de7864 c0de7864        0     1                 $t.14
c0de7865 c0de7865       5c     1                 nbgl_useCaseReview
c0de78c0 c0de78c0      144     2         build/nanos2/obj/sdk/lib_nbgl/src/nbgl_use_case_nanos.o:(.text.nbgl_useCaseAdvancedReview)
c0de78c0 c0de78c0        0     1                 $t.15
c0de78c1 c0de78c1      144     1                 nbgl_useCaseAdvancedReview
c0de7a04 c0de7a04       24     2         build/nanos2/obj/sdk/lib_nbgl/src/nbgl_use_case_nanos.o:(.text.nbgl_useCaseReviewBlindSigning)
c0de7a04 c0de7a04        0     1                 $t.16
c0de7a05 c0de7a05       24     1                 nbgl_useCaseReviewBlindSigning
c0de7a28 c0de7a28       6c     2         build/nanos2/obj/sdk/lib_nbgl/src/nbgl_use_case_nanos.o:(.text.nbgl_useCaseAddressReview)
c0de7a28 c0de7a28        0     1                 $t.18
c0de7a29 c0de7a29       6c     1                 nbgl_useCaseAddressReview
c0de7a94 c0de7a94      2a0     2         build/nanos2/obj/sdk/lib_nbgl/src/nbgl_use_case_nanos.o:(.text.displayReviewPage)
c0de7a94 c0de7a94        0     1                 $t.19
c0de7a95 c0de7a95      2a0     1                 displayReviewPage
c0de7d34 c0de7d34      182     2         build/nanos2/obj/sdk/lib_nbgl/src/nbgl_use_case_nanos.o:(.text.drawStep)
c0de7d34 c0de7d34        0     1                 $t.22
c0de7d35 c0de7d35      182     1                 drawStep
c0de7eb6 c0de7eb6       2a     2         build/nanos2/obj/sdk/lib_nbgl/src/nbgl_use_case_nanos.o:(.text.statusButtonCallback)
c0de7eb6 c0de7eb6        0     1                 $t.23
c0de7eb7 c0de7eb7       2a     1                 statusButtonCallback
c0de7ee0 c0de7ee0       d0     2         build/nanos2/obj/sdk/lib_nbgl/src/nbgl_use_case_nanos.o:(.text.nbgl_useCaseReviewStatus)
c0de7ee0 c0de7ee0        0     1                 $t.24
c0de7ee1 c0de7ee1       d0     1                 nbgl_useCaseReviewStatus
c0de7fb0 c0de7fb0      26a     2         build/nanos2/obj/sdk/lib_nbgl/src/nbgl_use_case_nanos.o:(.text.displayStreamingReviewPage)
c0de7fb0 c0de7fb0        0     1                 $t.26
c0de7fb1 c0de7fb1      26a     1                 displayStreamingReviewPage
c0de821a c0de821a       62     2         build/nanos2/obj/sdk/lib_nbgl/src/nbgl_use_case_nanos.o:(.text.nbgl_useCaseChoice)
c0de821a c0de821a        0     1                 $t.33
c0de821b c0de821b       62     1                 nbgl_useCaseChoice
c0de827c c0de827c      102     2         build/nanos2/obj/sdk/lib_nbgl/src/nbgl_use_case_nanos.o:(.text.displayChoicePage)
c0de827c c0de827c        0     1                 $t.35
c0de827d c0de827d      102     1                 displayChoicePage
c0de837e c0de837e       d2     2         build/nanos2/obj/sdk/lib_nbgl/src/nbgl_use_case_nanos.o:(.text.getContentAtIdx)
c0de837e c0de837e        0     1                 $t.39
c0de837f c0de837f       d2     1                 getContentAtIdx
c0de8450 c0de8450      108     2         build/nanos2/obj/sdk/lib_nbgl/src/nbgl_use_case_nanos.o:(.text.displayContent)
c0de8450 c0de8450        0     1                 $t.40
c0de8451 c0de8451      108     1                 displayContent
c0de8558 c0de8558      16c     2         build/nanos2/obj/sdk/lib_nbgl/src/nbgl_use_case_nanos.o:(.text.getContentPage)
c0de8558 c0de8558        0     1                 $t.41
c0de8559 c0de8559      16c     1                 getContentPage
c0de86c4 c0de86c4       1e     2         build/nanos2/obj/sdk/lib_nbgl/src/nbgl_use_case_nanos.o:(.text.contentCallback)
c0de86c4 c0de86c4        0     1                 $t.42
c0de86c5 c0de86c5       1e     1                 contentCallback
c0de86e4 c0de86e4       c2     4         build/nanos2/obj/sdk/lib_nbgl/src/nbgl_use_case_nanos.o:(.text.getContentElemAtIdx)
c0de86e4 c0de86e4        0     1                 $t.43
c0de86e5 c0de86e5       c2     1                 getContentElemAtIdx
c0de87a6 c0de87a6       b0     2         build/nanos2/obj/sdk/lib_nbgl/src/nbgl_use_case_nanos.o:(.text.onSwitchAction)
c0de87a6 c0de87a6        0     1                 $t.44
c0de87a7 c0de87a7       b0     1                 onSwitchAction
c0de8856 c0de8856       f6     2         build/nanos2/obj/sdk/lib_nbgl/src/nbgl_use_case_nanos.o:(.text.displaySettingsPage)
c0de8856 c0de8856        0     1                 $t.45
c0de8857 c0de8857       f6     1                 displaySettingsPage
c0de894c c0de894c       1e     2         build/nanos2/obj/sdk/lib_nbgl/src/nbgl_use_case_nanos.o:(.text.settingsCallback)
c0de894c c0de894c        0     1                 $t.46
c0de894d c0de894d       1e     1                 settingsCallback
c0de896a c0de896a      13c     2         build/nanos2/obj/sdk/lib_nbgl/src/nbgl_use_case_nanos.o:(.text.buttonGenericCallback)
c0de896a c0de896a        0     1                 $t.47
c0de896b c0de896b      13c     1                 buttonGenericCallback
c0de8aa6 c0de8aa6      120     2         build/nanos2/obj/sdk/lib_nbgl/src/nbgl_use_case_nanos.o:(.text.displayHomePage)
c0de8aa6 c0de8aa6        0     1                 $t.48
c0de8aa7 c0de8aa7      120     1                 displayHomePage
c0de8bc6 c0de8bc6        a     2         build/nanos2/obj/sdk/lib_nbgl/src/nbgl_use_case_nanos.o:(.text.startUseCaseSettings)
c0de8bc6 c0de8bc6        0     1                 $t.49
c0de8bc7 c0de8bc7        a     1                 startUseCaseSettings
c0de8bd0 c0de8bd0       28     2         build/nanos2/obj/sdk/lib_nbgl/src/nbgl_use_case_nanos.o:(.text.startUseCaseInfo)
c0de8bd0 c0de8bd0        0     1                 $t.50
c0de8bd1 c0de8bd1       28     1                 startUseCaseInfo
c0de8bf8 c0de8bf8       1c     2         build/nanos2/obj/sdk/lib_nbgl/src/nbgl_use_case_nanos.o:(.text.homeCallback)
c0de8bf8 c0de8bf8        0     1                 $t.51
c0de8bf9 c0de8bf9       1c     1                 homeCallback
c0de8c14 c0de8c14       a2     2         build/nanos2/obj/sdk/lib_nbgl/src/nbgl_use_case_nanos.o:(.text.displayInfoPage)
c0de8c14 c0de8c14        0     1                 $t.52
c0de8c15 c0de8c15       a2     1                 displayInfoPage
c0de8cb6 c0de8cb6       1c     2         build/nanos2/obj/sdk/lib_nbgl/src/nbgl_use_case_nanos.o:(.text.infoCallback)
c0de8cb6 c0de8cb6        0     1                 $t.53
c0de8cb7 c0de8cb7       1c     1                 infoCallback
c0de8cd2 c0de8cd2      186     2         build/nanos2/obj/sdk/lib_nbgl/src/nbgl_use_case_nanos.o:(.text.displayWarningStep)
c0de8cd2 c0de8cd2        0     1                 $t.54
c0de8cd3 c0de8cd3      186     1                 displayWarningStep
c0de8e58 c0de8e58      12a     2         build/nanos2/obj/sdk/lib_nbgl/src/nbgl_use_case_nanos.o:(.text.warningNavigate)
c0de8e58 c0de8e58        0     1                 $t.55
c0de8e59 c0de8e59      12a     1                 warningNavigate
c0de8f82 c0de8f82       1a     2         build/nanos2/obj/sdk/lib_nbgl/src/nbgl_use_case_nanos.o:(.text.onReviewAccept)
c0de8f82 c0de8f82        0     1                 $t.56
c0de8f83 c0de8f83       1a     1                 onReviewAccept
c0de8f9c c0de8f9c       1a     2         build/nanos2/obj/sdk/lib_nbgl/src/nbgl_use_case_nanos.o:(.text.onReviewReject)
c0de8f9c c0de8f9c        0     1                 $t.57
c0de8f9d c0de8f9d       1a     1                 onReviewReject
c0de8fb6 c0de8fb6       bc     2         build/nanos2/obj/sdk/lib_nbgl/src/nbgl_use_case_nanos.o:(.text.buttonSkipCallback)
c0de8fb6 c0de8fb6        0     1                 $t.58
c0de8fb7 c0de8fb7       bc     1                 buttonSkipCallback
c0de9072 c0de9072       82     2         build/nanos2/obj/sdk/lib_nbgl/src/nbgl_use_case_nanos.o:(.text.displayAliasFullValue)
c0de9072 c0de9072        0     1                 $t.59
c0de9073 c0de9073       82     1                 displayAliasFullValue
c0de90f4 c0de90f4       2a     2         build/nanos2/obj/sdk/lib_nbgl/src/nbgl_use_case_nanos.o:(.text.reviewCallback)
c0de90f4 c0de90f4        0     1                 $t.60
c0de90f5 c0de90f5       2a     1                 reviewCallback
c0de911e c0de911e      110     2         build/nanos2/obj/sdk/lib_nbgl/src/nbgl_use_case_nanos.o:(.text.displayExtensionStep)
c0de911e c0de911e        0     1                 $t.61
c0de911f c0de911f      110     1                 displayExtensionStep
c0de922e c0de922e       88     2         build/nanos2/obj/sdk/lib_nbgl/src/nbgl_use_case_nanos.o:(.text.extensionNavigate)
c0de922e c0de922e        0     1                 $t.62
c0de922f c0de922f       88     1                 extensionNavigate
c0de92b6 c0de92b6       16     2         build/nanos2/obj/sdk/lib_nbgl/src/nbgl_use_case_nanos.o:(.text.statusTickerCallback)
c0de92b6 c0de92b6        0     1                 $t.63
c0de92b7 c0de92b7       16     1                 statusTickerCallback
c0de92cc c0de92cc       76     2         build/nanos2/obj/sdk/lib_nbgl/src/nbgl_use_case_nanos.o:(.text.getChoiceName)
c0de92cc c0de92cc        0     1                 $t.64
c0de92cd c0de92cd       76     1                 getChoiceName
c0de9342 c0de9342       82     2         build/nanos2/obj/sdk/lib_nbgl/src/nbgl_use_case_nanos.o:(.text.onChoiceSelected)
c0de9342 c0de9342        0     1                 $t.65
c0de9343 c0de9343       82     1                 onChoiceSelected
c0de93c4 c0de93c4       2a     2         build/nanos2/obj/sdk/lib_nbgl/src/nbgl_use_case_nanos.o:(.text.streamingReviewCallback)
c0de93c4 c0de93c4        0     1                 $t.66
c0de93c5 c0de93c5       2a     1                 streamingReviewCallback
c0de93ee c0de93ee       1a     2         build/nanos2/obj/sdk/lib_nbgl/src/nbgl_use_case_nanos.o:(.text.onChoiceAccept)
c0de93ee c0de93ee        0     1                 $t.67
c0de93ef c0de93ef       1a     1                 onChoiceAccept
c0de9408 c0de9408       1a     2         build/nanos2/obj/sdk/lib_nbgl/src/nbgl_use_case_nanos.o:(.text.onChoiceReject)
c0de9408 c0de9408        0     1                 $t.68
c0de9409 c0de9409       1a     1                 onChoiceReject
c0de9422 c0de9422       1c     2         build/nanos2/obj/sdk/lib_nbgl/src/nbgl_use_case_nanos.o:(.text.genericChoiceCallback)
c0de9422 c0de9422        0     1                 $t.69
c0de9423 c0de9423       1c     1                 genericChoiceCallback
c0de943e c0de943e       f8     2         build/nanos2/obj/sdk/lib_pki/ledger_pki.o:(.text.check_signature_with_pki)
c0de943e c0de943e        0     1                 $t.0
c0de943f c0de943f       f8     1                 check_signature_with_pki
c0de9538 c0de9538       66     4         build/nanos2/obj/sdk/lib_standard_app/bip32.o:(.text.bip32_path_read)
c0de9538 c0de9538        0     1                 $t.0
c0de9539 c0de9539       66     1                 bip32_path_read
c0de959e c0de959e       16     2         build/nanos2/obj/sdk/lib_standard_app/buffer.o:(.text.buffer_seek_cur)
c0de959e c0de959e        0     1                 $t.2
c0de959f c0de959f       16     1                 buffer_seek_cur
c0de95b4 c0de95b4       2c     2         build/nanos2/obj/sdk/lib_standard_app/buffer.o:(.text.buffer_read_u8)
c0de95b4 c0de95b4        0     1                 $t.4
c0de95b5 c0de95b5       2c     1                 buffer_read_u8
c0de95e0 c0de95e0       4a     2         build/nanos2/obj/sdk/lib_standard_app/buffer.o:(.text.buffer_read_u64)
c0de95e0 c0de95e0        0     1                 $t.7
c0de95e1 c0de95e1       4a     1                 buffer_read_u64
c0de962a c0de962a       3a     2         build/nanos2/obj/sdk/lib_standard_app/buffer.o:(.text.buffer_read_varint)
c0de962a c0de962a        0     1                 $t.8
c0de962b c0de962b       3a     1                 buffer_read_varint
c0de9664 c0de9664       32     2         build/nanos2/obj/sdk/lib_standard_app/buffer.o:(.text.buffer_read_bip32_path)
c0de9664 c0de9664        0     1                 $t.9
c0de9665 c0de9665       32     1                 buffer_read_bip32_path
c0de9696 c0de9696       26     2         build/nanos2/obj/sdk/lib_standard_app/buffer.o:(.text.buffer_copy)
c0de9696 c0de9696        0     1                 $t.10
c0de9697 c0de9697       26     1                 buffer_copy
c0de96bc c0de96bc       36     2         build/nanos2/obj/sdk/lib_standard_app/buffer.o:(.text.buffer_move)
c0de96bc c0de96bc        0     1                 $t.11
c0de96bd c0de96bd       36     1                 buffer_move
c0de96f2 c0de96f2       9a     2         build/nanos2/obj/sdk/lib_standard_app/crypto_helpers.o:(.text.bip32_derive_with_seed_init_privkey_256)
c0de96f2 c0de96f2        0     1                 $t.0
c0de96f3 c0de96f3       9a     1                 bip32_derive_with_seed_init_privkey_256
c0de978c c0de978c       86     2         build/nanos2/obj/sdk/lib_standard_app/crypto_helpers.o:(.text.os_derive_bip32_with_seed_no_throw)
c0de978c c0de978c        0     1                 $t.1
c0de978d c0de978d       86     1                 os_derive_bip32_with_seed_no_throw
c0de9812 c0de9812       a6     2         build/nanos2/obj/sdk/lib_standard_app/crypto_helpers.o:(.text.bip32_derive_with_seed_get_pubkey_256)
c0de9812 c0de9812        0     1                 $t.2
c0de9813 c0de9813       a6     1                 bip32_derive_with_seed_get_pubkey_256
c0de98b8 c0de98b8       7a     2         build/nanos2/obj/sdk/lib_standard_app/crypto_helpers.o:(.text.bip32_derive_with_seed_ecdsa_sign_hash_256)
c0de98b8 c0de98b8        0     1                 $t.3
c0de98b9 c0de98b9       7a     1                 bip32_derive_with_seed_ecdsa_sign_hash_256
c0de9934 c0de9934       fa     4         build/nanos2/obj/sdk/lib_standard_app/format.o:(.text.format_fpu64)
c0de9934 c0de9934        0     1                 $t.2
c0de9935 c0de9935       fa     1                 format_fpu64
c0de9a30 c0de9a30       60     4         build/nanos2/obj/sdk/lib_standard_app/format.o:(.text.format_hex)
c0de9a30 c0de9a30        0     1                 $t.4
c0de9a31 c0de9a31       60     1                 format_hex
c0de9a90 c0de9a90        2     2         build/nanos2/obj/sdk/lib_standard_app/io.o:(.text.app_ticker_event_callback)
c0de9a90 c0de9a90        0     1                 $t.0
c0de9a91 c0de9a91        2     1                 app_ticker_event_callback
c0de9a92 c0de9a92       34     2         build/nanos2/obj/sdk/lib_standard_app/io.o:(.text.io_event)
c0de9a92 c0de9a92        0     1                 $t.1
c0de9a93 c0de9a93       34     1                 io_event
c0de9ac6 c0de9ac6       10     2         build/nanos2/obj/sdk/lib_standard_app/io.o:(.text.io_init)
c0de9ac6 c0de9ac6        0     1                 $t.2
c0de9ac7 c0de9ac7       10     1                 io_init
c0de9ad8 c0de9ad8       28     4         build/nanos2/obj/sdk/lib_standard_app/io.o:(.text.io_recv_command)
c0de9ad8 c0de9ad8        0     1                 $t.3
c0de9ad9 c0de9ad9       28     1                 io_recv_command
c0de9b00 c0de9b00       fc     4         build/nanos2/obj/sdk/lib_standard_app/io.o:(.text.io_send_response_buffers)
c0de9b00 c0de9b00        0     1                 $t.4
c0de9b01 c0de9b01       fc     1                 io_send_response_buffers
c0de9bfc c0de9bfc        6     2         build/nanos2/obj/sdk/lib_standard_app/main.o:(.text.app_exit)
c0de9bfc c0de9bfc        0     1                 $t.0
c0de9bfd c0de9bfd        6     1                 app_exit
c0de9c02 c0de9c02        c     2         build/nanos2/obj/sdk/lib_standard_app/main.o:(.text.common_app_init)
c0de9c02 c0de9c02        0     1                 $t.1
c0de9c03 c0de9c03        c     1                 common_app_init
c0de9c0e c0de9c0e       62     2         build/nanos2/obj/sdk/lib_standard_app/main.o:(.text.standalone_app_main)
c0de9c0e c0de9c0e        0     1                 $t.2
c0de9c0f c0de9c0f       62     1                 standalone_app_main
c0de9c70 c0de9c70       38     2         build/nanos2/obj/sdk/lib_standard_app/parser.o:(.text.apdu_parser)
c0de9c70 c0de9c70        0     1                 $t.0
c0de9c71 c0de9c71       38     1                 apdu_parser
c0de9ca8 c0de9ca8       18     2         build/nanos2/obj/sdk/lib_standard_app/read.o:(.text.read_u32_be)
c0de9ca8 c0de9ca8        0     1                 $t.1
c0de9ca9 c0de9ca9       18     1                 read_u32_be
c0de9cc0 c0de9cc0       34     2         build/nanos2/obj/sdk/lib_standard_app/read.o:(.text.read_u64_be)
c0de9cc0 c0de9cc0        0     1                 $t.2
c0de9cc1 c0de9cc1       34     1                 read_u64_be
c0de9cf4 c0de9cf4        e     2         build/nanos2/obj/sdk/lib_standard_app/read.o:(.text.read_u16_le)
c0de9cf4 c0de9cf4        0     1                 $t.3
c0de9cf5 c0de9cf5        e     1                 read_u16_le
c0de9d02 c0de9d02       18     2         build/nanos2/obj/sdk/lib_standard_app/read.o:(.text.read_u32_le)
c0de9d02 c0de9d02        0     1                 $t.4
c0de9d03 c0de9d03       18     1                 read_u32_le
c0de9d1a c0de9d1a       32     2         build/nanos2/obj/sdk/lib_standard_app/read.o:(.text.read_u64_le)
c0de9d1a c0de9d1a        0     1                 $t.5
c0de9d1b c0de9d1b       32     1                 read_u64_le
c0de9d4c c0de9d4c       5c     2         build/nanos2/obj/sdk/lib_standard_app/varint.o:(.text.varint_read)
c0de9d4c c0de9d4c        0     1                 $t.1
c0de9d4d c0de9d4d       5c     1                 varint_read
c0de9da8 c0de9da8        e     2         build/nanos2/obj/sdk/lib_standard_app/write.o:(.text.write_u16_be)
c0de9da8 c0de9da8        0     1                 $t.0
c0de9da9 c0de9da9        e     1                 write_u16_be
c0de9db6 c0de9db6       68     2         build/nanos2/obj/sdk/lib_tlv/tlv_library.o:(.text.get_uint64_t_from_tlv_data)
c0de9db6 c0de9db6        0     1                 $t.0
c0de9db7 c0de9db7       68     1                 get_uint64_t_from_tlv_data
c0de9e1e c0de9e1e       40     2         build/nanos2/obj/sdk/lib_tlv/tlv_library.o:(.text.get_uint32_t_from_tlv_data)
c0de9e1e c0de9e1e        0     1                 $t.1
c0de9e1f c0de9e1f       40     1                 get_uint32_t_from_tlv_data
c0de9e5e c0de9e5e       4a     2         build/nanos2/obj/sdk/lib_tlv/tlv_library.o:(.text.get_uint8_t_from_tlv_data)
c0de9e5e c0de9e5e        0     1                 $t.3
c0de9e5f c0de9e5f       4a     1                 get_uint8_t_from_tlv_data
c0de9ea8 c0de9ea8       5e     2         build/nanos2/obj/sdk/lib_tlv/tlv_library.o:(.text.get_buffer_from_tlv_data)
c0de9ea8 c0de9ea8        0     1                 $t.5
c0de9ea9 c0de9ea9       5e     1                 get_buffer_from_tlv_data
c0de9f06 c0de9f06       96     2         build/nanos2/obj/sdk/lib_tlv/tlv_library.o:(.text.get_string_from_tlv_data)
c0de9f06 c0de9f06        0     1                 $t.6
c0de9f07 c0de9f07       96     1                 get_string_from_tlv_data
c0de9f9c c0de9f9c       5c     4         build/nanos2/obj/sdk/lib_tlv/tlv_library.o:(.text.tlv_check_received_tags)
c0de9f9c c0de9f9c        0     1                 $t.7
c0de9f9d c0de9f9d       5c     1                 tlv_check_received_tags
c0de9ff8 c0de9ff8      21a     4         build/nanos2/obj/sdk/lib_tlv/tlv_library.o:(.text._parse_tlv_internal)
c0de9ff8 c0de9ff8        0     1                 $t.8
c0de9ff9 c0de9ff9      21a     1                 _parse_tlv_internal
c0dea212 c0dea212       ba     2         build/nanos2/obj/sdk/lib_tlv/tlv_library.o:(.text.get_der_value_as_uint32)
c0dea212 c0dea212        0     1                 $t.9
c0dea213 c0dea213       ba     1                 get_der_value_as_uint32
c0dea2cc c0dea2cc      226     2         build/nanos2/obj/sdk/lib_tlv/use_cases/tlv_use_case_dynamic_descriptor.o:(.text.tlv_use_case_dynamic_descriptor)
c0dea2cc c0dea2cc        0     1                 $t.0
c0dea2cd c0dea2cd      226     1                 tlv_use_case_dynamic_descriptor
c0dea4f2 c0dea4f2        a     2         build/nanos2/obj/sdk/lib_tlv/use_cases/tlv_use_case_dynamic_descriptor.o:(.text.handle_structure_type)
c0dea4f2 c0dea4f2        0     1                 $t.1
c0dea4f3 c0dea4f3        a     1                 handle_structure_type
c0dea4fc c0dea4fc        a     2         build/nanos2/obj/sdk/lib_tlv/use_cases/tlv_use_case_dynamic_descriptor.o:(.text.handle_version)
c0dea4fc c0dea4fc        0     1                 $t.2
c0dea4fd c0dea4fd        a     1                 handle_version
c0dea506 c0dea506        c     2         build/nanos2/obj/sdk/lib_tlv/use_cases/tlv_use_case_dynamic_descriptor.o:(.text.handle_coin_type)
c0dea506 c0dea506        0     1                 $t.3
c0dea507 c0dea507        c     1                 handle_coin_type
c0dea512 c0dea512        e     2         build/nanos2/obj/sdk/lib_tlv/use_cases/tlv_use_case_dynamic_descriptor.o:(.text.handle_application_name)
c0dea512 c0dea512        0     1                 $t.4
c0dea513 c0dea513        e     1                 handle_application_name
c0dea520 c0dea520       10     2         build/nanos2/obj/sdk/lib_tlv/use_cases/tlv_use_case_dynamic_descriptor.o:(.text.handle_ticker)
c0dea520 c0dea520        0     1                 $t.5
c0dea521 c0dea521       10     1                 handle_ticker
c0dea530 c0dea530        c     2         build/nanos2/obj/sdk/lib_tlv/use_cases/tlv_use_case_dynamic_descriptor.o:(.text.handle_magnitude)
c0dea530 c0dea530        0     1                 $t.6
c0dea531 c0dea531        c     1                 handle_magnitude
c0dea53c c0dea53c       10     2         build/nanos2/obj/sdk/lib_tlv/use_cases/tlv_use_case_dynamic_descriptor.o:(.text.handle_tuid)
c0dea53c c0dea53c        0     1                 $t.7
c0dea53d c0dea53d       10     1                 handle_tuid
c0dea54c c0dea54c        e     2         build/nanos2/obj/sdk/lib_tlv/use_cases/tlv_use_case_dynamic_descriptor.o:(.text.handle_signature)
c0dea54c c0dea54c        0     1                 $t.8
c0dea54d c0dea54d        e     1                 handle_signature
c0dea55a c0dea55a       be     2         build/nanos2/obj/sdk/lib_tlv/use_cases/tlv_use_case_dynamic_descriptor.o:(.text.handle_common)
c0dea55a c0dea55a        0     1                 $t.9
c0dea55b c0dea55b       be     1                 handle_common
c0dea618 c0dea618       68     2         build/nanos2/obj/sdk/lib_tlv/use_cases/tlv_use_case_dynamic_descriptor.o:(.text.parse_dynamic_token_tag_tag_to_flag)
c0dea618 c0dea618        0     1                 $t.10
c0dea619 c0dea619       68     1                 parse_dynamic_token_tag_tag_to_flag
c0dea680 c0dea680       7a     2         build/nanos2/obj/sdk/lib_ux_nbgl/ux.o:(.text.ux_process_button_event)
c0dea680 c0dea680        0     1                 $t.0
c0dea681 c0dea681       7a     1                 ux_process_button_event
c0dea6fa c0dea6fa       78     2         build/nanos2/obj/sdk/lib_ux_nbgl/ux.o:(.text.ux_process_ticker_event)
c0dea6fa c0dea6fa        0     1                 $t.1
c0dea6fb c0dea6fb       78     1                 ux_process_ticker_event
c0dea772 c0dea772       3c     2         build/nanos2/obj/sdk/lib_ux_nbgl/ux.o:(.text.ux_process_default_event)
c0dea772 c0dea772        0     1                 $t.2
c0dea773 c0dea773       3c     1                 ux_process_default_event
c0dea7b0 c0dea7b0       ce     4         build/nanos2/obj/sdk/src/cx_hash_iovec.o:(.text.hash_iovec_ex)
c0dea7b0 c0dea7b0        0     1                 $t.7
c0dea7b1 c0dea7b1       ce     1                 hash_iovec_ex
c0dea87e c0dea87e       20     2         build/nanos2/obj/sdk/src/cx_hash_iovec.o:(.text.cx_keccak_256_hash_iovec)
c0dea87e c0dea87e        0     1                 $t.12
c0dea87f c0dea87f       20     1                 cx_keccak_256_hash_iovec
c0dea89e c0dea89e        a     1         build/nanos2/obj/sdk/src/cx_stubs.o:(.text.cx_ecdsa_sign_no_throw)
c0dea89e c0dea89e        0     1                 $t.44
c0dea89f c0dea89f        0     1                 cx_ecdsa_sign_no_throw
c0dea8a8 c0dea8a8        a     1         build/nanos2/obj/sdk/src/cx_stubs.o:(.text.cx_ecfp_generate_pair2_no_throw)
c0dea8a8 c0dea8a8        0     1                 $t.49
c0dea8a9 c0dea8a9        0     1                 cx_ecfp_generate_pair2_no_throw
c0dea8b2 c0dea8b2        a     1         build/nanos2/obj/sdk/src/cx_stubs.o:(.text.cx_ecfp_init_private_key_no_throw)
c0dea8b2 c0dea8b2        0     1                 $t.51
c0dea8b3 c0dea8b3        0     1                 cx_ecfp_init_private_key_no_throw
c0dea8bc c0dea8bc        a     1         build/nanos2/obj/sdk/src/cx_stubs.o:(.text.cx_hash_final)
c0dea8bc c0dea8bc        0     1                 $t.63
c0dea8bd c0dea8bd        0     1                 cx_hash_final
c0dea8c6 c0dea8c6        a     1         build/nanos2/obj/sdk/src/cx_stubs.o:(.text.cx_hash_init_ex)
c0dea8c6 c0dea8c6        0     1                 $t.67
c0dea8c7 c0dea8c7        0     1                 cx_hash_init_ex
c0dea8d0 c0dea8d0        a     1         build/nanos2/obj/sdk/src/cx_stubs.o:(.text.cx_hash_no_throw)
c0dea8d0 c0dea8d0        0     1                 $t.68
c0dea8d1 c0dea8d1        0     1                 cx_hash_no_throw
c0dea8da c0dea8da        a     1         build/nanos2/obj/sdk/src/cx_stubs.o:(.text.cx_hash_update)
c0dea8da c0dea8da        0     1                 $t.72
c0dea8db c0dea8db        0     1                 cx_hash_update
c0dea8e4 c0dea8e4        a     1         build/nanos2/obj/sdk/src/cx_stubs.o:(.text.cx_keccak_init_no_throw)
c0dea8e4 c0dea8e4        0     1                 $t.86
c0dea8e5 c0dea8e5        0     1                 cx_keccak_init_no_throw
c0dea8ee c0dea8ee        a     1         build/nanos2/obj/sdk/src/cx_stubs.o:(.text.cx_rng_no_throw)
c0dea8ee c0dea8ee        0     1                 $t.106
c0dea8ef c0dea8ef        0     1                 cx_rng_no_throw
c0dea8f8 c0dea8f8        a     1         build/nanos2/obj/sdk/src/cx_stubs.o:(.text.cx_sha256_init_no_throw)
c0dea8f8 c0dea8f8        0     1                 $t.113
c0dea8f9 c0dea8f9        0     1                 cx_sha256_init_no_throw
c0dea904 c0dea904       10     4         build/nanos2/obj/sdk/src/cx_stubs.o:(.text.cx_aes_siv_reset)
c0dea904 c0dea904        0     1                 $t.144
c0dea905 c0dea905        0     1                 cx_aes_siv_reset
c0dea90d c0dea90d        0     1                 cx_trampoline_helper
c0dea910 c0dea910        0     1                 $d.145
c0dea914 c0dea914       44     2         build/nanos2/obj/sdk/src/ledger_assert.o:(.text.assert_display_lr_and_pc)
c0dea914 c0dea914        0     1                 $t.0
c0dea915 c0dea915       44     1                 assert_display_lr_and_pc
c0dea958 c0dea958       34     2         build/nanos2/obj/sdk/src/ledger_assert.o:(.text.assert_print_lr_and_pc)
c0dea958 c0dea958        0     1                 $t.1
c0dea959 c0dea959       34     1                 assert_print_lr_and_pc
c0dea98c c0dea98c       38     2         build/nanos2/obj/sdk/src/ledger_assert.o:(.text.assert_display_file_info)
c0dea98c c0dea98c        0     1                 $t.2
c0dea98d c0dea98d       38     1                 assert_display_file_info
c0dea9c4 c0dea9c4       16     2         build/nanos2/obj/sdk/src/ledger_assert.o:(.text.assert_print_file_info)
c0dea9c4 c0dea9c4        0     1                 $t.3
c0dea9c5 c0dea9c5       16     1                 assert_print_file_info
c0dea9da c0dea9da       30     2         build/nanos2/obj/sdk/src/ledger_assert.o:(.text.throw_display_lr)
c0dea9da c0dea9da        0     1                 $t.4
c0dea9db c0dea9db       30     1                 throw_display_lr
c0deaa0a c0deaa0a       1e     2         build/nanos2/obj/sdk/src/ledger_assert.o:(.text.throw_print_lr)
c0deaa0a c0deaa0a        0     1                 $t.5
c0deaa0b c0deaa0b       1e     1                 throw_print_lr
c0deaa28 c0deaa28        6     2         build/nanos2/obj/sdk/src/ledger_assert.o:(.text.assert_exit)
c0deaa28 c0deaa28        0     1                 $t.6
c0deaa29 c0deaa29        6     1                 assert_exit
c0deaa30 c0deaa30       46     4         build/nanos2/obj/sdk/src/ledger_assert.o:(.text.assert_display_exit)
c0deaa30 c0deaa30        0     1                 $t.7
c0deaa31 c0deaa31       46     1                 assert_display_exit
c0deaa76 c0deaa76        a     1         build/nanos2/obj/sdk/src/nbgl_stubs.o:(.text.nbgl_refresh)
c0deaa76 c0deaa76        0     1                 $t.0
c0deaa77 c0deaa77        0     1                 nbgl_refresh
c0deaa80 c0deaa80        a     1         build/nanos2/obj/sdk/src/nbgl_stubs.o:(.text.nbgl_objInit)
c0deaa80 c0deaa80        0     1                 $t.5
c0deaa81 c0deaa81        0     1                 nbgl_objInit
c0deaa8a c0deaa8a        a     1         build/nanos2/obj/sdk/src/nbgl_stubs.o:(.text.nbgl_objAllowDrawing)
c0deaa8a c0deaa8a        0     1                 $t.7
c0deaa8b c0deaa8b        0     1                 nbgl_objAllowDrawing
c0deaa94 c0deaa94        a     1         build/nanos2/obj/sdk/src/nbgl_stubs.o:(.text.nbgl_screenSet)
c0deaa94 c0deaa94        0     1                 $t.10
c0deaa95 c0deaa95        0     1                 nbgl_screenSet
c0deaa9e c0deaa9e        a     1         build/nanos2/obj/sdk/src/nbgl_stubs.o:(.text.nbgl_screenPush)
c0deaa9e c0deaa9e        0     1                 $t.11
c0deaa9f c0deaa9f        0     1                 nbgl_screenPush
c0deaaa8 c0deaaa8        a     1         build/nanos2/obj/sdk/src/nbgl_stubs.o:(.text.nbgl_screenRedraw)
c0deaaa8 c0deaaa8        0     1                 $t.12
c0deaaa9 c0deaaa9        0     1                 nbgl_screenRedraw
c0deaab2 c0deaab2        a     1         build/nanos2/obj/sdk/src/nbgl_stubs.o:(.text.nbgl_screenPop)
c0deaab2 c0deaab2        0     1                 $t.13
c0deaab3 c0deaab3        0     1                 nbgl_screenPop
c0deaabc c0deaabc        a     1         build/nanos2/obj/sdk/src/nbgl_stubs.o:(.text.nbgl_screenHandler)
c0deaabc c0deaabc        0     1                 $t.22
c0deaabd c0deaabd        0     1                 nbgl_screenHandler
c0deaac6 c0deaac6        a     1         build/nanos2/obj/sdk/src/nbgl_stubs.o:(.text.nbgl_objPoolGet)
c0deaac6 c0deaac6        0     1                 $t.23
c0deaac7 c0deaac7        0     1                 nbgl_objPoolGet
c0deaad0 c0deaad0        a     1         build/nanos2/obj/sdk/src/nbgl_stubs.o:(.text.nbgl_containerPoolGet)
c0deaad0 c0deaad0        0     1                 $t.25
c0deaad1 c0deaad1        0     1                 nbgl_containerPoolGet
c0deaada c0deaada        a     1         build/nanos2/obj/sdk/src/nbgl_stubs.o:(.text.nbgl_getFont)
c0deaada c0deaada        0     1                 $t.27
c0deaadb c0deaadb        0     1                 nbgl_getFont
c0deaae4 c0deaae4        a     1         build/nanos2/obj/sdk/src/nbgl_stubs.o:(.text.nbgl_getFontLineHeight)
c0deaae4 c0deaae4        0     1                 $t.29
c0deaae5 c0deaae5        0     1                 nbgl_getFontLineHeight
c0deaaee c0deaaee        a     1         build/nanos2/obj/sdk/src/nbgl_stubs.o:(.text.nbgl_getTextMaxLenAndWidth)
c0deaaee c0deaaee        0     1                 $t.34
c0deaaef c0deaaef        0     1                 nbgl_getTextMaxLenAndWidth
c0deaaf8 c0deaaf8        a     1         build/nanos2/obj/sdk/src/nbgl_stubs.o:(.text.nbgl_getTextNbLinesInWidth)
c0deaaf8 c0deaaf8        0     1                 $t.35
c0deaaf9 c0deaaf9        0     1                 nbgl_getTextNbLinesInWidth
c0deab02 c0deab02        a     1         build/nanos2/obj/sdk/src/nbgl_stubs.o:(.text.nbgl_getTextNbPagesInWidth)
c0deab02 c0deab02        0     1                 $t.36
c0deab03 c0deab03        0     1                 nbgl_getTextNbPagesInWidth
c0deab0c c0deab0c        a     1         build/nanos2/obj/sdk/src/nbgl_stubs.o:(.text.nbgl_getTextWidth)
c0deab0c c0deab0c        0     1                 $t.37
c0deab0d c0deab0d        0     1                 nbgl_getTextWidth
c0deab16 c0deab16        a     1         build/nanos2/obj/sdk/src/nbgl_stubs.o:(.text.nbgl_getTextMaxLenInNbLines)
c0deab16 c0deab16        0     1                 $t.38
c0deab17 c0deab17        0     1                 nbgl_getTextMaxLenInNbLines
c0deab20 c0deab20        a     1         build/nanos2/obj/sdk/src/nbgl_stubs.o:(.text.nbgl_textReduceOnNbLines)
c0deab20 c0deab20        0     1                 $t.39
c0deab21 c0deab21        0     1                 nbgl_textReduceOnNbLines
c0deab2a c0deab2a        a     1         build/nanos2/obj/sdk/src/nbgl_stubs.o:(.text.nbgl_buttonsHandler)
c0deab2a c0deab2a        0     1                 $t.45
c0deab2b c0deab2b        0     1                 nbgl_buttonsHandler
c0deab34 c0deab34       10     4         build/nanos2/obj/sdk/src/nbgl_stubs.o:(.text.pic_init)
c0deab34 c0deab34        0     1                 $t.51
c0deab35 c0deab35        0     1                 pic_init
c0deab3d c0deab3d        0     1                 nbgl_trampoline_helper
c0deab40 c0deab40        0     1                 $d.52
c0deab44 c0deab44        a     2         build/nanos2/obj/sdk/src/os.o:(.text.os_boot)
c0deab44 c0deab44        0     1                 $t.0
c0deab45 c0deab45        a     1                 os_boot
c0deab4e c0deab4e       1c     2         build/nanos2/obj/sdk/src/os.o:(.text.os_longjmp)
c0deab4e c0deab4e        0     1                 $t.3
c0deab4f c0deab4f       1c     1                 os_longjmp
c0deab6a c0deab6a       16     2         build/nanos2/obj/sdk/src/os.o:(.text.compute_address_location)
c0deab6a c0deab6a        0     1                 $t.5
c0deab6b c0deab6b       16     1                 compute_address_location
c0deab80 c0deab80      60c     4         build/nanos2/obj/sdk/src/os_printf.o:(.text.mcu_usb_printf)
c0deab80 c0deab80        0     1                 $t.0
c0deab81 c0deab81      60c     1                 mcu_usb_printf
c0deab81 c0deab81      60c     1                 screen_printf
c0deb18c c0deb18c      688     4         build/nanos2/obj/sdk/src/os_printf.o:(.text.vformat_internal)
c0deb18c c0deb18c        0     1                 $t.1
c0deb18d c0deb18d      688     1                 vformat_internal
c0deb814 c0deb814       58     2         build/nanos2/obj/sdk/src/os_printf.o:(.text.snprintf)
c0deb814 c0deb814        0     1                 $t.2
c0deb815 c0deb815       58     1                 snprintf
c0deb86c c0deb86c       32     2         build/nanos2/obj/sdk/src/os_printf.o:(.text.sprintf_output)
c0deb86c c0deb86c        0     1                 $t.3
c0deb86d c0deb86d       32     1                 sprintf_output
c0deb8a0 c0deb8a0       3c     4         build/nanos2/obj/sdk/src/pic.o:(.text.pic)
c0deb8a0 c0deb8a0        0     1                 $t.0
c0deb8a1 c0deb8a1       2c     1                 pic
c0deb8cc c0deb8cc        0     1                 $d.2
c0deb8dc c0deb8dc       10     4         build/nanos2/obj/sdk/src/pic.o:(.text.pic_internal)
c0deb8dc c0deb8dc        0     1                 $t.1
c0deb8dd c0deb8dd        c     1                 pic_internal
c0deb8e8 c0deb8e8        0     1                 $d.3
c0deb8ec c0deb8ec        e     4         build/nanos2/obj/sdk/src/svc_call.o:(.text)
c0deb8ec c0deb8ec        0     1                 $t.0
c0deb8ed c0deb8ed        0     1                 SVC_Call
c0deb8f4 c0deb8f4        0     1                 exception
c0deb8fc c0deb8fc        4     4         build/nanos2/obj/sdk/src/svc_cx_call.o:(.text)
c0deb8fc c0deb8fc        0     1                 $t.0
c0deb8fd c0deb8fd        0     1                 SVC_cx_call
c0deb900 c0deb900       18     2         build/nanos2/obj/sdk/src/syscalls.o:(.text.nvm_write)
c0deb900 c0deb900        0     1                 $t.13
c0deb901 c0deb901       18     1                 nvm_write
c0deb918 c0deb918       1a     2         build/nanos2/obj/sdk/src/syscalls.o:(.text.cx_ecdomain_parameters_length)
c0deb918 c0deb918        0     1                 $t.70
c0deb919 c0deb919       1a     1                 cx_ecdomain_parameters_length
c0deb932 c0deb932       28     2         build/nanos2/obj/sdk/src/syscalls.o:(.text.os_perso_derive_node_with_seed_key)
c0deb932 c0deb932        0     1                 $t.109
c0deb933 c0deb933       28     1                 os_perso_derive_node_with_seed_key
c0deb95a c0deb95a       20     2         build/nanos2/obj/sdk/src/syscalls.o:(.text.os_pki_load_certificate)
c0deb95a c0deb95a        0     1                 $t.112
c0deb95b c0deb95b       20     1                 os_pki_load_certificate
c0deb97a c0deb97a       1e     2         build/nanos2/obj/sdk/src/syscalls.o:(.text.os_pki_verify)
c0deb97a c0deb97a        0     1                 $t.113
c0deb97b c0deb97b       1e     1                 os_pki_verify
c0deb998 c0deb998       18     2         build/nanos2/obj/sdk/src/syscalls.o:(.text.os_pki_get_info)
c0deb998 c0deb998        0     1                 $t.114
c0deb999 c0deb999       18     1                 os_pki_get_info
c0deb9b0 c0deb9b0       16     2         build/nanos2/obj/sdk/src/syscalls.o:(.text.os_perso_is_pin_set)
c0deb9b0 c0deb9b0        0     1                 $t.125
c0deb9b1 c0deb9b1       16     1                 os_perso_is_pin_set
c0deb9c6 c0deb9c6       16     2         build/nanos2/obj/sdk/src/syscalls.o:(.text.os_global_pin_is_validated)
c0deb9c6 c0deb9c6        0     1                 $t.126
c0deb9c7 c0deb9c7       16     1                 os_global_pin_is_validated
c0deb9dc c0deb9dc       1a     2         build/nanos2/obj/sdk/src/syscalls.o:(.text.os_ux)
c0deb9dc c0deb9dc        0     1                 $t.132
c0deb9dd c0deb9dd       1a     1                 os_ux
c0deb9f6 c0deb9f6       14     2         build/nanos2/obj/sdk/src/syscalls.o:(.text.os_flags)
c0deb9f6 c0deb9f6        0     1                 $t.137
c0deb9f7 c0deb9f7       14     1                 os_flags
c0deba0a c0deba0a       18     2         build/nanos2/obj/sdk/src/syscalls.o:(.text.os_registry_get_current_app_tag)
c0deba0a c0deba0a        0     1                 $t.148
c0deba0b c0deba0b       18     1                 os_registry_get_current_app_tag
c0deba22 c0deba22       16     2         build/nanos2/obj/sdk/src/syscalls.o:(.text.os_sched_exit)
c0deba22 c0deba22        0     1                 $t.152
c0deba23 c0deba23       16     1                 os_sched_exit
c0deba38 c0deba38       16     2         build/nanos2/obj/sdk/src/syscalls.o:(.text.os_io_init)
c0deba38 c0deba38        0     1                 $t.158
c0deba39 c0deba39       16     1                 os_io_init
c0deba4e c0deba4e       18     2         build/nanos2/obj/sdk/src/syscalls.o:(.text.os_io_start)
c0deba4e c0deba4e        0     1                 $t.159
c0deba4f c0deba4f       18     1                 os_io_start
c0deba66 c0deba66       18     2         build/nanos2/obj/sdk/src/syscalls.o:(.text.os_io_stop)
c0deba66 c0deba66        0     1                 $t.160
c0deba67 c0deba67       18     1                 os_io_stop
c0deba7e c0deba7e       18     2         build/nanos2/obj/sdk/src/syscalls.o:(.text.os_io_tx_cmd)
c0deba7e c0deba7e        0     1                 $t.161
c0deba7f c0deba7f       18     1                 os_io_tx_cmd
c0deba96 c0deba96       18     2         build/nanos2/obj/sdk/src/syscalls.o:(.text.os_io_rx_evt)
c0deba96 c0deba96        0     1                 $t.162
c0deba97 c0deba97       18     1                 os_io_rx_evt
c0debaae c0debaae       14     2         build/nanos2/obj/sdk/src/syscalls.o:(.text.try_context_get)
c0debaae c0debaae        0     1                 $t.165
c0debaaf c0debaaf       14     1                 try_context_get
c0debac2 c0debac2       1c     2         build/nanos2/obj/sdk/src/syscalls.o:(.text.try_context_set)
c0debac2 c0debac2        0     1                 $t.166
c0debac3 c0debac3       1c     1                 try_context_set
c0debade c0debade       1c     2         build/nanos2/obj/sdk/src/syscalls.o:(.text.os_sched_last_status)
c0debade c0debade        0     1                 $t.167
c0debadf c0debadf       1c     1                 os_sched_last_status
c0debafc c0debafc      1c6     4         /opt/nanosplus-secure-sdk/arch/st33k1/lib/libclang_rt.builtins.a(udivmoddi4.c.o):(.text)
c0debafc c0debafc        0     1                 $t.0
c0debafd c0debafd      1c6     1                 __udivmoddi4
c0debcc4 c0debcc4        4     4         /opt/nanosplus-secure-sdk/arch/st33k1/lib/libclang_rt.builtins.a(aeabi_memcpy.S.o):(.text)
c0debcc4 c0debcc4        0     1                 $t.0
c0debcc5 c0debcc5        4     1                 __aeabi_memcpy
c0debcc5 c0debcc5        4     1                 __aeabi_memcpy4
c0debcc5 c0debcc5        4     1                 __aeabi_memcpy8
c0debcc8 c0debcc8        4     4         /opt/nanosplus-secure-sdk/arch/st33k1/lib/libclang_rt.builtins.a(aeabi_memmove.S.o):(.text)
c0debcc8 c0debcc8        0     1                 $t.0
c0debcc9 c0debcc9        4     1                 __aeabi_memmove
c0debcc9 c0debcc9        4     1                 __aeabi_memmove4
c0debcc9 c0debcc9        4     1                 __aeabi_memmove8
c0debccc c0debccc       14     4         /opt/nanosplus-secure-sdk/arch/st33k1/lib/libclang_rt.builtins.a(aeabi_memset.S.o):(.text)
c0debccc c0debccc        0     1                 $t.0
c0debccd c0debccd        a     1                 __aeabi_memset
c0debccd c0debccd        a     1                 __aeabi_memset4
c0debccd c0debccd        a     1                 __aeabi_memset8
c0debcd9 c0debcd9        8     1                 __aeabi_memclr
c0debcd9 c0debcd9        8     1                 __aeabi_memclr4
c0debcd9 c0debcd9        8     1                 __aeabi_memclr8
c0debce0 c0debce0       14     4         /opt/nanosplus-secure-sdk/arch/st33k1/lib/libclang_rt.builtins.a(aeabi_uldivmod.S.o):(.text)
c0debce0 c0debce0        0     1                 $t.0
c0debce1 c0debce1       14     1                 __aeabi_uldivmod
c0debcf4 c0debcf4        4     2         /opt/nanosplus-secure-sdk/arch/st33k1/lib/libc.a(lib_a-explicit_bzero.o):(.text.explicit_bzero)
c0debcf4 c0debcf4        0     1                 $t
c0debcf5 c0debcf5        4     1                 explicit_bzero
c0debcf8 c0debcf8        8     2         /opt/nanosplus-secure-sdk/arch/st33k1/lib/libc.a(lib_a-bzero.o):(.text.bzero)
c0debcf8 c0debcf8        0     1                 $t
c0debcf9 c0debcf9        8     1                 bzero
c0debd00 c0debd00       20     2         /opt/nanosplus-secure-sdk/arch/st33k1/lib/libc.a(lib_a-memcmp.o):(.text.memcmp)
c0debd00 c0debd00        0     1                 $t
c0debd01 c0debd01       20     1                 memcmp
c0debd20 c0debd20       1c     2         /opt/nanosplus-secure-sdk/arch/st33k1/lib/libc.a(lib_a-memcpy-stub.o):(.text.memcpy)
c0debd20 c0debd20        0     1                 $t
c0debd21 c0debd21       1c     1                 memcpy
c0debd3c c0debd3c       34     2         /opt/nanosplus-secure-sdk/arch/st33k1/lib/libc.a(lib_a-memmove.o):(.text.memmove)
c0debd3c c0debd3c        0     1                 $t
c0debd3d c0debd3d       34     1                 memmove
c0debd70 c0debd70       10     2         /opt/nanosplus-secure-sdk/arch/st33k1/lib/libc.a(lib_a-memset.o):(.text.memset)
c0debd70 c0debd70        0     1                 $t
c0debd71 c0debd71       10     1                 memset
c0debd80 c0debd80       1c     4         /opt/nanosplus-secure-sdk/arch/st33k1/lib/libc.a(lib_a-setjmp.o):(.text)
c0debd80 c0debd80        0     1                 $t
c0debd81 c0debd81        c     1                 setjmp
c0debd8d c0debd8d        e     1                 longjmp
c0debd9c c0debd9c       14     2         /opt/nanosplus-secure-sdk/arch/st33k1/lib/libc.a(lib_a-strcmp.o):(.text)
c0debd9c c0debd9c        0     1                 $t
c0debd9d c0debd9d       14     1                 strcmp
c0debdb0 c0debdb0       10     2         /opt/nanosplus-secure-sdk/arch/st33k1/lib/libc.a(lib_a-strlen.o):(.text)
c0debdb0 c0debdb0        0     1                 $t
c0debdb1 c0debdb1       10     1                 strlen
c0debdc0 c0debdc0       2a     2         /opt/nanosplus-secure-sdk/arch/st33k1/lib/libc.a(lib_a-strncat.o):(.text.strncat)
c0debdc0 c0debdc0        0     1                 $t
c0debdc1 c0debdc1       2a     1                 strncat
c0debdea c0debdea       26     2         /opt/nanosplus-secure-sdk/arch/st33k1/lib/libc.a(lib_a-strncpy.o):(.text.strncpy)
c0debdea c0debdea        0     1                 $t
c0debdeb c0debdeb       26     1                 strncpy
c0debe10 c0debe10       18     2         /opt/nanosplus-secure-sdk/arch/st33k1/lib/libc.a(lib_a-strnlen.o):(.text.strnlen)
c0debe10 c0debe10        0     1                 $t
c0debe11 c0debe11       18     1                 strnlen
c0debe28 c0debe28        0     1         _ecode = .
c0debe28 c0debe28       16     1         build/nanos2/gen_src/glyphs.o:(.rodata.C_home_zknox_14px_bitmap)
c0debe28 c0debe28       16     1                 C_home_zknox_14px_bitmap
c0debe3e c0debe3e        a     1         build/nanos2/gen_src/glyphs.o:(.rodata.C_home_zknox_14px)
c0debe3e c0debe3e        a     1                 C_home_zknox_14px
c0debe48 c0debe48       19     1         build/nanos2/gen_src/glyphs.o:(.rodata.C_Information_circle_14px_bitmap)
c0debe48 c0debe48       19     1                 C_Information_circle_14px_bitmap
c0debe61 c0debe61        a     1         build/nanos2/gen_src/glyphs.o:(.rodata.C_Information_circle_14px)
c0debe61 c0debe61        a     1                 C_Information_circle_14px
c0debe6b c0debe6b       19     1         build/nanos2/gen_src/glyphs.o:(.rodata.C_Quit_14px_bitmap)
c0debe6b c0debe6b       19     1                 C_Quit_14px_bitmap
c0debe84 c0debe84        a     1         build/nanos2/gen_src/glyphs.o:(.rodata.C_Quit_14px)
c0debe84 c0debe84        a     1                 C_Quit_14px
c0debe8e c0debe8e        c     1         build/nanos2/gen_src/glyphs.o:(.rodata.C_Switch_Off_8px_bitmap)
c0debe8e c0debe8e        c     1                 C_Switch_Off_8px_bitmap
c0debe9a c0debe9a        a     1         build/nanos2/gen_src/glyphs.o:(.rodata.C_Switch_Off_8px)
c0debe9a c0debe9a        a     1                 C_Switch_Off_8px
c0debea4 c0debea4        c     1         build/nanos2/gen_src/glyphs.o:(.rodata.C_Switch_On_8px_bitmap)
c0debea4 c0debea4        c     1                 C_Switch_On_8px_bitmap
c0debeb0 c0debeb0        a     1         build/nanos2/gen_src/glyphs.o:(.rodata.C_Switch_On_8px)
c0debeb0 c0debeb0        a     1                 C_Switch_On_8px
c0debeba c0debeba       19     1         build/nanos2/gen_src/glyphs.o:(.rodata.C_icon_back_x_bitmap)
c0debeba c0debeba       19     1                 C_icon_back_x_bitmap
c0debed3 c0debed3        a     1         build/nanos2/gen_src/glyphs.o:(.rodata.C_icon_back_x)
c0debed3 c0debed3        a     1                 C_icon_back_x
c0debedd c0debedd       19     1         build/nanos2/gen_src/glyphs.o:(.rodata.C_icon_coggle_bitmap)
c0debedd c0debedd       19     1                 C_icon_coggle_bitmap
c0debef6 c0debef6        a     1         build/nanos2/gen_src/glyphs.o:(.rodata.C_icon_coggle)
c0debef6 c0debef6        a     1                 C_icon_coggle
c0debf00 c0debf00       19     1         build/nanos2/gen_src/glyphs.o:(.rodata.C_icon_crossmark_bitmap)
c0debf00 c0debf00       19     1                 C_icon_crossmark_bitmap
c0debf19 c0debf19        a     1         build/nanos2/gen_src/glyphs.o:(.rodata.C_icon_crossmark)
c0debf19 c0debf19        a     1                 C_icon_crossmark
c0debf23 c0debf23        4     1         build/nanos2/gen_src/glyphs.o:(.rodata.C_icon_down_bitmap)
c0debf23 c0debf23        4     1                 C_icon_down_bitmap
c0debf27 c0debf27        a     1         build/nanos2/gen_src/glyphs.o:(.rodata.C_icon_down)
c0debf27 c0debf27        a     1                 C_icon_down
c0debf31 c0debf31        4     1         build/nanos2/gen_src/glyphs.o:(.rodata.C_icon_left_bitmap)
c0debf31 c0debf31        4     1                 C_icon_left_bitmap
c0debf35 c0debf35        a     1         build/nanos2/gen_src/glyphs.o:(.rodata.C_icon_left)
c0debf35 c0debf35        a     1                 C_icon_left
c0debf3f c0debf3f        4     1         build/nanos2/gen_src/glyphs.o:(.rodata.C_icon_right_bitmap)
c0debf3f c0debf3f        4     1                 C_icon_right_bitmap
c0debf43 c0debf43        a     1         build/nanos2/gen_src/glyphs.o:(.rodata.C_icon_right)
c0debf43 c0debf43        a     1                 C_icon_right
c0debf4d c0debf4d        4     1         build/nanos2/gen_src/glyphs.o:(.rodata.C_icon_up_bitmap)
c0debf4d c0debf4d        4     1                 C_icon_up_bitmap
c0debf51 c0debf51        a     1         build/nanos2/gen_src/glyphs.o:(.rodata.C_icon_up)
c0debf51 c0debf51        a     1                 C_icon_up
c0debf5b c0debf5b       17     1         build/nanos2/gen_src/glyphs.o:(.rodata.C_icon_validate_14_bitmap)
c0debf5b c0debf5b       17     1                 C_icon_validate_14_bitmap
c0debf72 c0debf72        a     1         build/nanos2/gen_src/glyphs.o:(.rodata.C_icon_validate_14)
c0debf72 c0debf72        a     1                 C_icon_validate_14
c0debf7c c0debf7c       19     1         build/nanos2/gen_src/glyphs.o:(.rodata.C_icon_warning_bitmap)
c0debf7c c0debf7c       19     1                 C_icon_warning_bitmap
c0debf95 c0debf95        a     1         build/nanos2/gen_src/glyphs.o:(.rodata.C_icon_warning)
c0debf95 c0debf95        a     1                 C_icon_warning
c0debf9f c0debf9f       40     1         build/nanos2/gen_src/glyphs.o:(.rodata.C_app_zknox_14px_bitmap)
c0debf9f c0debf9f       40     1                 C_app_zknox_14px_bitmap
c0debfdf c0debfdf        a     1         build/nanos2/gen_src/glyphs.o:(.rodata.C_app_zknox_14px)
c0debfdf c0debfdf        a     1                 C_app_zknox_14px
c0debfe9 c0debfe9     10fd     1         <internal>:(.text)
c0ded0e8 c0ded0e8       2d     4         <internal>:(.text)
c0ded118 c0ded118        c     4         build/nanos2/obj/app/src/handler/provide_token_info.o:(.rodata..L__const.parse_dynamic_token_tuid.handlers)
c0ded118 c0ded118        c     1                 .L__const.parse_dynamic_token_tuid.handlers
c0ded124 c0ded124      995     1         build/nanos2/obj/app/src/handler/zkn_magicbox.o:(.rodata.handler_cmd_verify_dilithium.sig)
c0ded124 c0ded124      995     1                 handler_cmd_verify_dilithium.sig
c0dedab9 c0dedab9      520     1         build/nanos2/obj/app/src/handler/zkn_magicbox.o:(.rodata.handler_cmd_verify_dilithium.pk)
c0dedab9 c0dedab9      520     1                 handler_cmd_verify_dilithium.pk
c0dedfd9 c0dedfd9        f     1         build/nanos2/obj/app/src/handler/zkn_magicbox.o:(.rodata.handler_get_mldsa_seed.modifier)
c0dedfd9 c0dedfd9        f     1                 handler_get_mldsa_seed.modifier
c0dedfe8 c0dedfe8        f     1         build/nanos2/obj/app/src/handler/zkn_magicbox.o:(.rodata.handler_hybrid_sign_hash.modifier)
c0dedfe8 c0dedfe8        f     1                 handler_hybrid_sign_hash.modifier
c0dedff7 c0dedff7      1a4     1         build/nanos2/obj/app/src/token/token_db.o:(.rodata.TOKENS)
c0dedff7 c0dedff7      1a4     1                 TOKENS
c0dee19c c0dee19c        c     4         build/nanos2/obj/app/src/ui/menu_nbgl.o:(.rodata.settingContents)
c0dee19c c0dee19c        c     1                 settingContents
c0dee1a8 c0dee1a8       10     4         build/nanos2/obj/app/src/ui/menu_nbgl.o:(.rodata.infoList)
c0dee1a8 c0dee1a8       10     1                 infoList
c0dee1b8 c0dee1b8       38     4         build/nanos2/obj/app/src/ui/menu_nbgl.o:(.rodata.contents)
c0dee1b8 c0dee1b8       38     1                 contents
c0dee1f0 c0dee1f0        8     4         build/nanos2/obj/app/src/ui/menu_nbgl.o:(.rodata.INFO_TYPES)
c0dee1f0 c0dee1f0        8     1                 INFO_TYPES
c0dee1f8 c0dee1f8        8     4         build/nanos2/obj/app/src/ui/menu_nbgl.o:(.rodata.INFO_CONTENTS)
c0dee1f8 c0dee1f8        8     1                 INFO_CONTENTS
c0dee200 c0dee200       c0     8         build/nanos2/obj/app/src/zknox/dilithium/fips202.o:(.rodata.pqcrystals_dilithium_fips202_ref_KeccakF_RoundConstants)
c0dee200 c0dee200       c0     1                 pqcrystals_dilithium_fips202_ref_KeccakF_RoundConstants
c0dee2c0 c0dee2c0      400     4         build/nanos2/obj/app/src/zknox/dilithium/ntt.o:(.rodata.zetas)
c0dee2c0 c0dee2c0      400     1                 zetas
c0dee6c0 c0dee6c0      100     2         build/nanos2/obj/app/src/zknox/dilithium/smallntt_3329.o:(.rodata.small_zetas)
c0dee6c0 c0dee6c0      100     1                 small_zetas
c0dee7c0 c0dee7c0       2c     4         build/nanos2/obj/sdk/lib_nbgl/src/nbgl_use_case_nanos.o:(.rodata.blindSigningWarning)
c0dee7c0 c0dee7c0       2c     1                 blindSigningWarning
c0dee7ec c0dee7ec       1c     4         build/nanos2/obj/sdk/lib_tlv/use_cases/tlv_use_case_dynamic_descriptor.o:(.rodata..Lconstinit)
c0dee7ec c0dee7ec       1c     1                 .Lconstinit
c0dee808 c0dee808       60     4         build/nanos2/obj/sdk/lib_tlv/use_cases/tlv_use_case_dynamic_descriptor.o:(.rodata..L__const.parse_dynamic_token_tag.handlers)
c0dee808 c0dee808       60     1                 .L__const.parse_dynamic_token_tag.handlers
c0dee868 c0dee868       20     1         <internal>:(.text)
c0dee888 c0dee888        0     1         . = ALIGN ( 4 )
c0dee888 c0dee888        0     1         _etext = .
c0dee888 c0dee888      178     1         . = ALIGN ( PAGE_SIZE )
c0deea00 c0deea00        0     1         _nvram_data = .
c0deea00 c0deea00        3     1         build/nanos2/obj/app/src/app_main.o:(.rodata.N_storage_real)
c0deea00 c0deea00        3     1                 N_storage_real
c0deea03 c0deea03      1fd     1         . = ALIGN ( PAGE_SIZE )
c0deec00 c0deec00        0     1         _envram_data = .
c0deec00 c0deec00        0     1         _install_parameters = .
c0deec00 c0deec00       86     1         build/nanos2/obj/sdk/src/app_metadata.o:(.install_parameters)
c0deec00 c0deec00       86     1                 install_parameters
c0deec86 c0deec86        0     1         _einstall_parameters = .
c0deec86 c0deec86        0     1         _nvram_end = .
d0000000 d0000000        0     1 .data
d0000000 d0000000        0     1         . = ALIGN ( 4 )
d0000000 d0000000        0     1         _data = .
d0000000 d0000000        0     1         _edata = .
d0000000 d0000000        0     1 
da7a0000 da7a0000     1cc8     8 .bss
da7a0000 da7a0000        0     1         _bss = .
da7a0000 da7a0000      2e8     8         build/nanos2/obj/app/src/app_main.o:(.bss.G_context)
da7a0000 da7a0000      2e8     1                 G_context
da7a02e8 da7a02e8     1118     8         build/nanos2/obj/app/src/app_main.o:(.bss.g_zknox)
da7a02e8 da7a02e8     1118     1                 g_zknox
da7a1400 da7a1400      15e     4         build/nanos2/obj/app/src/handler/handler_hybrid_sign_userop.o:(.bss.userop_ctx)
da7a1400 da7a1400      15e     1                 userop_ctx
da7a155e da7a155e       55     1         build/nanos2/obj/app/src/token/dynamic_token_info.o:(.bss.g_dynamic_token_info)
da7a155e da7a155e       55     1                 g_dynamic_token_info
da7a15b4 da7a15b4       18     4         build/nanos2/obj/app/src/ui/menu_nbgl.o:(.bss.switches)
da7a15b4 da7a15b4       18     1                 switches
da7a15cc da7a15cc        1     1         build/nanos2/obj/app/src/ui/menu_nbgl.o:(.bss.initSettingPage)
da7a15cc da7a15cc        1     1                 initSettingPage
da7a15cd da7a15cd       2b     1         build/nanos2/obj/app/src/ui/nbgl_display_address.o:(.bss.g_address)
da7a15cd da7a15cd       2b     1                 g_address
da7a15f8 da7a15f8       41     1         build/nanos2/obj/app/src/ui/nbgl_display_transaction.o:(.bss.g_hash_str)
da7a15f8 da7a15f8       41     1                 g_hash_str
da7a163c da7a163c       50     4         build/nanos2/obj/app/src/ui/nbgl_display_transaction.o:(.bss.pairs)
da7a163c da7a163c       50     1                 pairs
da7a168c da7a168c       14     4         build/nanos2/obj/app/src/ui/nbgl_display_transaction.o:(.bss.pairList)
da7a168c da7a168c       14     1                 pairList
da7a16a0 da7a16a0       2b     1         build/nanos2/obj/app/src/ui/nbgl_display_transaction.o:(.bss.g_userop_sender)
da7a16a0 da7a16a0       2b     1                 g_userop_sender
da7a16cb da7a16cb       2b     1         build/nanos2/obj/app/src/ui/nbgl_display_transaction.o:(.bss.g_userop_to)
da7a16cb da7a16cb       2b     1                 g_userop_to
da7a16f6 da7a16f6       1e     1         build/nanos2/obj/app/src/ui/nbgl_display_transaction.o:(.bss.g_userop_value)
da7a16f6 da7a16f6       1e     1                 g_userop_value
da7a1714 da7a1714        c     1         build/nanos2/obj/app/src/ui/nbgl_display_transaction.o:(.bss.g_userop_chain)
da7a1714 da7a1714        c     1                 g_userop_chain
da7a1720 da7a1720       1e     1         build/nanos2/obj/app/src/ui/nbgl_display_transaction.o:(.bss.g_amount)
da7a1720 da7a1720       1e     1                 g_amount
da7a173e da7a173e       2b     1         build/nanos2/obj/app/src/ui/nbgl_display_transaction.o:(.bss.g_address)
da7a173e da7a173e       2b     1                 g_address
da7a1769 da7a1769        a     1         build/nanos2/obj/app/src/ui/nbgl_display_transaction.o:(.bss.g_token)
da7a1769 da7a1769        a     1                 g_token
da7a1773 da7a1773      111     1         build/nanos2/obj/sdk/io/src/os_io.o:(.bss.G_io_tx_buffer)
da7a1773 da7a1773      111     1                 G_io_tx_buffer
da7a1884 da7a1884      111     1         build/nanos2/obj/sdk/io/src/os_io.o:(.bss.G_io_rx_buffer)
da7a1884 da7a1884      111     1                 G_io_rx_buffer
da7a1995 da7a1995        1     1         build/nanos2/obj/sdk/io_legacy/src/os_io_legacy.o:(.bss.need_to_start_io)
da7a1995 da7a1995        1     1                 need_to_start_io
da7a1996 da7a1996        8     2         build/nanos2/obj/sdk/io_legacy/src/os_io_legacy.o:(.bss.G_io_app)
da7a1996 da7a1996        8     1                 G_io_app
da7a199e da7a199e        1     1         build/nanos2/obj/sdk/io_legacy/src/os_io_legacy.o:(.bss.io_os_legacy_apdu_type)
da7a199e da7a199e        1     1                 io_os_legacy_apdu_type
da7a19a0 da7a19a0       24     4         build/nanos2/obj/sdk/lib_nbgl/src/nbgl_layout_nanos.o:(.bss.gLayout)
da7a19a0 da7a19a0       24     1                 gLayout
da7a19c4 da7a19c4       14     4         build/nanos2/obj/sdk/lib_nbgl/src/nbgl_layout_nanos.o:(.bss.nbgl_layoutAddText.tmpString)
da7a19c4 da7a19c4       14     1                 nbgl_layoutAddText.tmpString
da7a19d8 da7a19d8       d8     4         build/nanos2/obj/sdk/lib_nbgl/src/nbgl_step.o:(.bss.contexts)
da7a19d8 da7a19d8       d8     1                 contexts
da7a1ab0 da7a1ab0       40     4         build/nanos2/obj/sdk/lib_nbgl/src/nbgl_use_case_nanos.o:(.bss.context)
da7a1ab0 da7a1ab0       40     1                 context
da7a1af0 da7a1af0       2c     4         build/nanos2/obj/sdk/lib_nbgl/src/nbgl_use_case_nanos.o:(.bss.reviewWithWarnCtx)
da7a1af0 da7a1af0       2c     1                 reviewWithWarnCtx
da7a1b1c da7a1b1c      110     1         build/nanos2/obj/sdk/lib_standard_app/io.o:(.bss.G_io_seproxyhal_spi_buffer)
da7a1b1c da7a1b1c      110     1                 G_io_seproxyhal_spi_buffer
da7a1c2c da7a1c2c        1     1         build/nanos2/obj/sdk/lib_standard_app/io.o:(.bss.need_to_start_io)
da7a1c2c da7a1c2c        1     1                 need_to_start_io
da7a1c30 da7a1c30        c     4         build/nanos2/obj/sdk/lib_standard_app/main.o:(.bss.G_ux_params)
da7a1c30 da7a1c30        c     1                 G_ux_params
da7a1c3c da7a1c3c        4     4         build/nanos2/obj/sdk/lib_ux_nbgl/ux.o:(.bss.nbTicks)
da7a1c3c da7a1c3c        4     1                 nbTicks
da7a1c40 da7a1c40       82     1         build/nanos2/obj/sdk/src/ledger_assert.o:(.bss.assert_buffer)
da7a1c40 da7a1c40       82     1                 assert_buffer
da7a1cc2 da7a1cc2        0     1         _ebss = .
da7a1cc2 da7a1cc2        2     1         . = ALIGN ( 4 )
da7a1cc4 da7a1cc4        0     1         app_stack_canary = .
da7a1cc4 da7a1cc4        4     1         . += 4
da7a1cc8 da7a1cc8        0     1         _stack = .
da7a1cc8 da7a1cc8        0     1         _estack = ABSOLUTE ( END_STACK )
da7a1cc8 da7a1cc8        0     1 
d0000000 d0000000       10     4 DEBUG
d0000000 d0000000       10     4         <internal>:(.ARM.exidx)
       0        0       5d     1 .comment
       0        0       5d     1         <internal>:(.comment)
       0        0     1ff3     1 .debug_info
       0        0       3b     1         build/nanos2/obj/app/src/address.o:(.debug_info)
      3b       3b       49     1         build/nanos2/obj/app/src/apdu/dispatcher.o:(.debug_info)
      84       84       3b     1         build/nanos2/obj/app/src/app_main.o:(.debug_info)
      bf       bf       3b     1         build/nanos2/obj/app/src/handler/get_app_name.o:(.debug_info)
      fa       fa       57     1         build/nanos2/obj/app/src/handler/get_public_key.o:(.debug_info)
     151      151       3b     1         build/nanos2/obj/app/src/handler/get_version.o:(.debug_info)
     18c      18c       eb     1         build/nanos2/obj/app/src/handler/handler_hybrid_sign_userop.o:(.debug_info)
     277      277       4a     1         build/nanos2/obj/app/src/handler/provide_token_info.o:(.debug_info)
     2c1      2c1       75     1         build/nanos2/obj/app/src/handler/sign_tx.o:(.debug_info)
     336      336      198     1         build/nanos2/obj/app/src/handler/zkn_magicbox.o:(.debug_info)
     4ce      4ce       54     1         build/nanos2/obj/app/src/helper/send_reponse.o:(.debug_info)
     522      522       3b     1         build/nanos2/obj/app/src/token/dynamic_token_info.o:(.debug_info)
     55d      55d       23     1         build/nanos2/obj/app/src/token/token_db.o:(.debug_info)
     580      580       23     1         build/nanos2/obj/app/src/transaction/deserialize.o:(.debug_info)
     5a3      5a3       23     1         build/nanos2/obj/app/src/transaction/serialize.o:(.debug_info)
     5c6      5c6       27     1         build/nanos2/obj/app/src/transaction/utils.o:(.debug_info)
     5ed      5ed       a0     1         build/nanos2/obj/app/src/ui/action/validate.o:(.debug_info)
     68d      68d       27     1         build/nanos2/obj/app/src/ui/menu_nbgl.o:(.debug_info)
     6b4      6b4       3f     1         build/nanos2/obj/app/src/ui/nbgl_display_address.o:(.debug_info)
     6f3      6f3       af     1         build/nanos2/obj/app/src/ui/nbgl_display_transaction.o:(.debug_info)
     7a2      7a2      1e2     1         build/nanos2/obj/app/src/zknox/dilithium/fips202.o:(.debug_info)
     984      984       27     1         build/nanos2/obj/app/src/zknox/dilithium/keccak256.o:(.debug_info)
     9ab      9ab       27     1         build/nanos2/obj/app/src/zknox/dilithium/keccak_prng.o:(.debug_info)
     9d2      9d2      12f     1         build/nanos2/obj/app/src/zknox/dilithium/lowram.o:(.debug_info)
     b01      b01       27     1         build/nanos2/obj/app/src/zknox/dilithium/ntt.o:(.debug_info)
     b28      b28       27     1         build/nanos2/obj/app/src/zknox/dilithium/packing.o:(.debug_info)
     b4f      b4f       70     1         build/nanos2/obj/app/src/zknox/dilithium/poly.o:(.debug_info)
     bbf      bbf       3b     1         build/nanos2/obj/app/src/zknox/dilithium/polyvec.o:(.debug_info)
     bfa      bfa       23     1         build/nanos2/obj/app/src/zknox/dilithium/randombytes.o:(.debug_info)
     c1d      c1d       4e     1         build/nanos2/obj/app/src/zknox/dilithium/reduce.o:(.debug_info)
     c6b      c6b       3b     1         build/nanos2/obj/app/src/zknox/dilithium/rounding.o:(.debug_info)
     ca6      ca6       84     1         build/nanos2/obj/app/src/zknox/dilithium/sign.o:(.debug_info)
     d2a      d2a      128     1         build/nanos2/obj/app/src/zknox/dilithium/smallntt_3329.o:(.debug_info)
     e52      e52       67     1         build/nanos2/obj/app/src/zknox/dilithium/smallpoly.o:(.debug_info)
     eb9      eb9       27     1         build/nanos2/obj/app/src/zknox/dilithium/symmetric-shake.o:(.debug_info)
     ee0      ee0       23     1         build/nanos2/obj/app/src/zknox/keys/derive.o:(.debug_info)
     f03      f03       23     1         build/nanos2/obj/sdk/io/src/os_io.o:(.debug_info)
     f26      f26       3f     1         build/nanos2/obj/sdk/io/src/os_io_default_apdu.o:(.debug_info)
     f65      f65       27     1         build/nanos2/obj/sdk/io/src/os_io_seph_cmd.o:(.debug_info)
     f8c      f8c       3b     1         build/nanos2/obj/sdk/io/src/os_io_seph_ux.o:(.debug_info)
     fc7      fc7       4f     1         build/nanos2/obj/sdk/io_legacy/src/os_io_legacy.o:(.debug_info)
    1016     1016       d8     1         build/nanos2/obj/sdk/lib_nbgl/src/nbgl_layout_nanos.o:(.debug_info)
    10ee     10ee       de     1         build/nanos2/obj/sdk/lib_nbgl/src/nbgl_step.o:(.debug_info)
    11cc     11cc      270     1         build/nanos2/obj/sdk/lib_nbgl/src/nbgl_use_case_nanos.o:(.debug_info)
    143c     143c       23     1         build/nanos2/obj/sdk/lib_pki/ledger_pki.o:(.debug_info)
    145f     145f       27     1         build/nanos2/obj/sdk/lib_standard_app/base58.o:(.debug_info)
    1486     1486       27     1         build/nanos2/obj/sdk/lib_standard_app/bip32.o:(.debug_info)
    14ad     14ad       e2     1         build/nanos2/obj/sdk/lib_standard_app/buffer.o:(.debug_info)
    158f     158f       27     1         build/nanos2/obj/sdk/lib_standard_app/crypto_helpers.o:(.debug_info)
    15b6     15b6       3f     1         build/nanos2/obj/sdk/lib_standard_app/format.o:(.debug_info)
    15f5     15f5       3f     1         build/nanos2/obj/sdk/lib_standard_app/io.o:(.debug_info)
    1634     1634       27     1         build/nanos2/obj/sdk/lib_standard_app/main.o:(.debug_info)
    165b     165b       23     1         build/nanos2/obj/sdk/lib_standard_app/parser.o:(.debug_info)
    167e     167e       27     1         build/nanos2/obj/sdk/lib_standard_app/read.o:(.debug_info)
    16a5     16a5       3f     1         build/nanos2/obj/sdk/lib_standard_app/varint.o:(.debug_info)
    16e4     16e4       27     1         build/nanos2/obj/sdk/lib_standard_app/write.o:(.debug_info)
    170b     170b       27     1         build/nanos2/obj/sdk/lib_stusb/src/usbd_conf.o:(.debug_info)
    1732     1732       27     1         build/nanos2/obj/sdk/lib_stusb/src/usbd_core.o:(.debug_info)
    1759     1759      114     1         build/nanos2/obj/sdk/lib_stusb/src/usbd_ctlreq.o:(.debug_info)
    186d     186d       27     1         build/nanos2/obj/sdk/lib_stusb/src/usbd_desc.o:(.debug_info)
    1894     1894       27     1         build/nanos2/obj/sdk/lib_stusb/src/usbd_ioreq.o:(.debug_info)
    18bb     18bb      1c7     1         build/nanos2/obj/sdk/lib_stusb/src/usbd_ledger.o:(.debug_info)
    1a82     1a82       27     1         build/nanos2/obj/sdk/lib_stusb/src/usbd_ledger_hid.o:(.debug_info)
    1aa9     1aa9       27     1         build/nanos2/obj/sdk/lib_stusb/src/usbd_ledger_webusb.o:(.debug_info)
    1ad0     1ad0       a1     1         build/nanos2/obj/sdk/lib_tlv/tlv_library.o:(.debug_info)
    1b71     1b71       4e     1         build/nanos2/obj/sdk/lib_tlv/use_cases/tlv_use_case_dynamic_descriptor.o:(.debug_info)
    1bbf     1bbf       9b     1         build/nanos2/obj/sdk/lib_tlv/use_cases/tlv_use_case_trusted_name.o:(.debug_info)
    1c5a     1c5a       65     1         build/nanos2/obj/sdk/lib_ux_nbgl/ux.o:(.debug_info)
    1cbf     1cbf       83     1         build/nanos2/obj/sdk/protocol/src/ledger_protocol.o:(.debug_info)
    1d42     1d42       27     1         build/nanos2/obj/sdk/src/cx_hash_iovec.o:(.debug_info)
    1d69     1d69       23     1         build/nanos2/obj/sdk/src/cx_wrappers.o:(.debug_info)
    1d8c     1d8c       27     1         build/nanos2/obj/sdk/src/ledger_assert.o:(.debug_info)
    1db3     1db3       7b     1         build/nanos2/obj/sdk/src/os.o:(.debug_info)
    1e2e     1e2e      150     1         build/nanos2/obj/sdk/src/os_printf.o:(.debug_info)
    1f7e     1f7e       27     1         build/nanos2/obj/sdk/src/pic.o:(.debug_info)
    1fa5     1fa5       27     1         build/nanos2/obj/sdk/src/retrocompatibility_endorsement.o:(.debug_info)
    1fcc     1fcc       27     1         build/nanos2/obj/sdk/src/syscalls.o:(.debug_info)
       0        0     118d     1 .debug_abbrev
       0        0       40     1         build/nanos2/obj/app/src/address.o:(.debug_abbrev)
      40       40       51     1         build/nanos2/obj/app/src/apdu/dispatcher.o:(.debug_abbrev)
      91       91       40     1         build/nanos2/obj/app/src/app_main.o:(.debug_abbrev)
      d1       d1       40     1         build/nanos2/obj/app/src/handler/get_app_name.o:(.debug_abbrev)
     111      111       40     1         build/nanos2/obj/app/src/handler/get_public_key.o:(.debug_abbrev)
     151      151       40     1         build/nanos2/obj/app/src/handler/get_version.o:(.debug_abbrev)
     191      191       71     1         build/nanos2/obj/app/src/handler/handler_hybrid_sign_userop.o:(.debug_abbrev)
     202      202       51     1         build/nanos2/obj/app/src/handler/provide_token_info.o:(.debug_abbrev)
     253      253       71     1         build/nanos2/obj/app/src/handler/sign_tx.o:(.debug_abbrev)
     2c4      2c4       53     1         build/nanos2/obj/app/src/handler/zkn_magicbox.o:(.debug_abbrev)
     317      317       42     1         build/nanos2/obj/app/src/helper/send_reponse.o:(.debug_abbrev)
     359      359       40     1         build/nanos2/obj/app/src/token/dynamic_token_info.o:(.debug_abbrev)
     399      399       18     1         build/nanos2/obj/app/src/token/token_db.o:(.debug_abbrev)
     3b1      3b1       18     1         build/nanos2/obj/app/src/transaction/deserialize.o:(.debug_abbrev)
     3c9      3c9       18     1         build/nanos2/obj/app/src/transaction/serialize.o:(.debug_abbrev)
     3e1      3e1       1a     1         build/nanos2/obj/app/src/transaction/utils.o:(.debug_abbrev)
     3fb      3fb       60     1         build/nanos2/obj/app/src/ui/action/validate.o:(.debug_abbrev)
     45b      45b       1a     1         build/nanos2/obj/app/src/ui/menu_nbgl.o:(.debug_abbrev)
     475      475       42     1         build/nanos2/obj/app/src/ui/nbgl_display_address.o:(.debug_abbrev)
     4b7      4b7       62     1         build/nanos2/obj/app/src/ui/nbgl_display_transaction.o:(.debug_abbrev)
     519      519       6d     1         build/nanos2/obj/app/src/zknox/dilithium/fips202.o:(.debug_abbrev)
     586      586       1a     1         build/nanos2/obj/app/src/zknox/dilithium/keccak256.o:(.debug_abbrev)
     5a0      5a0       1a     1         build/nanos2/obj/app/src/zknox/dilithium/keccak_prng.o:(.debug_abbrev)
     5ba      5ba       62     1         build/nanos2/obj/app/src/zknox/dilithium/lowram.o:(.debug_abbrev)
     61c      61c       1a     1         build/nanos2/obj/app/src/zknox/dilithium/ntt.o:(.debug_abbrev)
     636      636       1a     1         build/nanos2/obj/app/src/zknox/dilithium/packing.o:(.debug_abbrev)
     650      650       51     1         build/nanos2/obj/app/src/zknox/dilithium/poly.o:(.debug_abbrev)
     6a1      6a1       40     1         build/nanos2/obj/app/src/zknox/dilithium/polyvec.o:(.debug_abbrev)
     6e1      6e1       18     1         build/nanos2/obj/app/src/zknox/dilithium/randombytes.o:(.debug_abbrev)
     6f9      6f9       42     1         build/nanos2/obj/app/src/zknox/dilithium/reduce.o:(.debug_abbrev)
     73b      73b       40     1         build/nanos2/obj/app/src/zknox/dilithium/rounding.o:(.debug_abbrev)
     77b      77b       5e     1         build/nanos2/obj/app/src/zknox/dilithium/sign.o:(.debug_abbrev)
     7d9      7d9       71     1         build/nanos2/obj/app/src/zknox/dilithium/smallntt_3329.o:(.debug_abbrev)
     84a      84a       60     1         build/nanos2/obj/app/src/zknox/dilithium/smallpoly.o:(.debug_abbrev)
     8aa      8aa       1a     1         build/nanos2/obj/app/src/zknox/dilithium/symmetric-shake.o:(.debug_abbrev)
     8c4      8c4       18     1         build/nanos2/obj/app/src/zknox/keys/derive.o:(.debug_abbrev)
     8dc      8dc       18     1         build/nanos2/obj/sdk/io/src/os_io.o:(.debug_abbrev)
     8f4      8f4       42     1         build/nanos2/obj/sdk/io/src/os_io_default_apdu.o:(.debug_abbrev)
     936      936       1a     1         build/nanos2/obj/sdk/io/src/os_io_seph_cmd.o:(.debug_abbrev)
     950      950       40     1         build/nanos2/obj/sdk/io/src/os_io_seph_ux.o:(.debug_abbrev)
     990      990       4f     1         build/nanos2/obj/sdk/io_legacy/src/os_io_legacy.o:(.debug_abbrev)
     9df      9df       4f     1         build/nanos2/obj/sdk/lib_nbgl/src/nbgl_layout_nanos.o:(.debug_abbrev)
     a2e      a2e       51     1         build/nanos2/obj/sdk/lib_nbgl/src/nbgl_step.o:(.debug_abbrev)
     a7f      a7f       6f     1         build/nanos2/obj/sdk/lib_nbgl/src/nbgl_use_case_nanos.o:(.debug_abbrev)
     aee      aee       18     1         build/nanos2/obj/sdk/lib_pki/ledger_pki.o:(.debug_abbrev)
     b06      b06       1a     1         build/nanos2/obj/sdk/lib_standard_app/base58.o:(.debug_abbrev)
     b20      b20       1a     1         build/nanos2/obj/sdk/lib_standard_app/bip32.o:(.debug_abbrev)
     b3a      b3a       51     1         build/nanos2/obj/sdk/lib_standard_app/buffer.o:(.debug_abbrev)
     b8b      b8b       1a     1         build/nanos2/obj/sdk/lib_standard_app/crypto_helpers.o:(.debug_abbrev)
     ba5      ba5       42     1         build/nanos2/obj/sdk/lib_standard_app/format.o:(.debug_abbrev)
     be7      be7       42     1         build/nanos2/obj/sdk/lib_standard_app/io.o:(.debug_abbrev)
     c29      c29       1a     1         build/nanos2/obj/sdk/lib_standard_app/main.o:(.debug_abbrev)
     c43      c43       18     1         build/nanos2/obj/sdk/lib_standard_app/parser.o:(.debug_abbrev)
     c5b      c5b       1a     1         build/nanos2/obj/sdk/lib_standard_app/read.o:(.debug_abbrev)
     c75      c75       42     1         build/nanos2/obj/sdk/lib_standard_app/varint.o:(.debug_abbrev)
     cb7      cb7       1a     1         build/nanos2/obj/sdk/lib_standard_app/write.o:(.debug_abbrev)
     cd1      cd1       1a     1         build/nanos2/obj/sdk/lib_stusb/src/usbd_conf.o:(.debug_abbrev)
     ceb      ceb       1a     1         build/nanos2/obj/sdk/lib_stusb/src/usbd_core.o:(.debug_abbrev)
     d05      d05       71     1         build/nanos2/obj/sdk/lib_stusb/src/usbd_ctlreq.o:(.debug_abbrev)
     d76      d76       1a     1         build/nanos2/obj/sdk/lib_stusb/src/usbd_desc.o:(.debug_abbrev)
     d90      d90       1a     1         build/nanos2/obj/sdk/lib_stusb/src/usbd_ioreq.o:(.debug_abbrev)
     daa      daa       5e     1         build/nanos2/obj/sdk/lib_stusb/src/usbd_ledger.o:(.debug_abbrev)
     e08      e08       1a     1         build/nanos2/obj/sdk/lib_stusb/src/usbd_ledger_hid.o:(.debug_abbrev)
     e22      e22       1a     1         build/nanos2/obj/sdk/lib_stusb/src/usbd_ledger_webusb.o:(.debug_abbrev)
     e3c      e3c       62     1         build/nanos2/obj/sdk/lib_tlv/tlv_library.o:(.debug_abbrev)
     e9e      e9e       42     1         build/nanos2/obj/sdk/lib_tlv/use_cases/tlv_use_case_dynamic_descriptor.o:(.debug_abbrev)
     ee0      ee0       80     1         build/nanos2/obj/sdk/lib_tlv/use_cases/tlv_use_case_trusted_name.o:(.debug_abbrev)
     f60      f60       51     1         build/nanos2/obj/sdk/lib_ux_nbgl/ux.o:(.debug_abbrev)
     fb1      fb1       71     1         build/nanos2/obj/sdk/protocol/src/ledger_protocol.o:(.debug_abbrev)
    1022     1022       1a     1         build/nanos2/obj/sdk/src/cx_hash_iovec.o:(.debug_abbrev)
    103c     103c       18     1         build/nanos2/obj/sdk/src/cx_wrappers.o:(.debug_abbrev)
    1054     1054       1a     1         build/nanos2/obj/sdk/src/ledger_assert.o:(.debug_abbrev)
    106e     106e       53     1         build/nanos2/obj/sdk/src/os.o:(.debug_abbrev)
    10c1     10c1       7e     1         build/nanos2/obj/sdk/src/os_printf.o:(.debug_abbrev)
    113f     113f       1a     1         build/nanos2/obj/sdk/src/pic.o:(.debug_abbrev)
    1159     1159       1a     1         build/nanos2/obj/sdk/src/retrocompatibility_endorsement.o:(.debug_abbrev)
    1173     1173       1a     1         build/nanos2/obj/sdk/src/syscalls.o:(.debug_abbrev)
       0        0    10a28     1 .debug_line
       0        0       ad     1         build/nanos2/obj/app/src/address.o:(.debug_line)
      ad       ad      3fa     1         build/nanos2/obj/app/src/apdu/dispatcher.o:(.debug_line)
     4a7      4a7       ec     1         build/nanos2/obj/app/src/app_main.o:(.debug_line)
     593      593       82     1         build/nanos2/obj/app/src/handler/get_app_name.o:(.debug_line)
     615      615       e1     1         build/nanos2/obj/app/src/handler/get_public_key.o:(.debug_line)
     6f6      6f6       85     1         build/nanos2/obj/app/src/handler/get_version.o:(.debug_line)
     77b      77b      327     1         build/nanos2/obj/app/src/handler/handler_hybrid_sign_userop.o:(.debug_line)
     aa2      aa2      144     1         build/nanos2/obj/app/src/handler/provide_token_info.o:(.debug_line)
     be6      be6      1c2     1         build/nanos2/obj/app/src/handler/sign_tx.o:(.debug_line)
     da8      da8      469     1         build/nanos2/obj/app/src/handler/zkn_magicbox.o:(.debug_line)
    1211     1211       ef     1         build/nanos2/obj/app/src/helper/send_reponse.o:(.debug_line)
    1300     1300       f9     1         build/nanos2/obj/app/src/token/dynamic_token_info.o:(.debug_line)
    13f9     13f9       96     1         build/nanos2/obj/app/src/token/token_db.o:(.debug_line)
    148f     148f      163     1         build/nanos2/obj/app/src/transaction/deserialize.o:(.debug_line)
    15f2     15f2       e2     1         build/nanos2/obj/app/src/transaction/serialize.o:(.debug_line)
    16d4     16d4       e2     1         build/nanos2/obj/app/src/transaction/utils.o:(.debug_line)
    17b6     17b6      1e9     1         build/nanos2/obj/app/src/ui/action/validate.o:(.debug_line)
    199f     199f      185     1         build/nanos2/obj/app/src/ui/menu_nbgl.o:(.debug_line)
    1b24     1b24       d6     1         build/nanos2/obj/app/src/ui/nbgl_display_address.o:(.debug_line)
    1bfa     1bfa      509     1         build/nanos2/obj/app/src/ui/nbgl_display_transaction.o:(.debug_line)
    2103     2103      eee     1         build/nanos2/obj/app/src/zknox/dilithium/fips202.o:(.debug_line)
    2ff1     2ff1       a0     1         build/nanos2/obj/app/src/zknox/dilithium/keccak256.o:(.debug_line)
    3091     3091      1e9     1         build/nanos2/obj/app/src/zknox/dilithium/keccak_prng.o:(.debug_line)
    327a     327a      ec7     1         build/nanos2/obj/app/src/zknox/dilithium/lowram.o:(.debug_line)
    4141     4141      135     1         build/nanos2/obj/app/src/zknox/dilithium/ntt.o:(.debug_line)
    4276     4276      2f0     1         build/nanos2/obj/app/src/zknox/dilithium/packing.o:(.debug_line)
    4566     4566      ace     1         build/nanos2/obj/app/src/zknox/dilithium/poly.o:(.debug_line)
    5034     5034      469     1         build/nanos2/obj/app/src/zknox/dilithium/polyvec.o:(.debug_line)
    549d     549d       59     1         build/nanos2/obj/app/src/zknox/dilithium/randombytes.o:(.debug_line)
    54f6     54f6       c0     1         build/nanos2/obj/app/src/zknox/dilithium/reduce.o:(.debug_line)
    55b6     55b6      109     1         build/nanos2/obj/app/src/zknox/dilithium/rounding.o:(.debug_line)
    56bf     56bf      52d     1         build/nanos2/obj/app/src/zknox/dilithium/sign.o:(.debug_line)
    5bec     5bec      230     1         build/nanos2/obj/app/src/zknox/dilithium/smallntt_3329.o:(.debug_line)
    5e1c     5e1c      282     1         build/nanos2/obj/app/src/zknox/dilithium/smallpoly.o:(.debug_line)
    609e     609e       a1     1         build/nanos2/obj/app/src/zknox/dilithium/symmetric-shake.o:(.debug_line)
    613f     613f       a5     1         build/nanos2/obj/app/src/zknox/keys/derive.o:(.debug_line)
    61e4     61e4       ad     1         build/nanos2/obj/sdk/io/src/os_io.o:(.debug_line)
    6291     6291      169     1         build/nanos2/obj/sdk/io/src/os_io_default_apdu.o:(.debug_line)
    63fa     63fa      1ff     1         build/nanos2/obj/sdk/io/src/os_io_seph_cmd.o:(.debug_line)
    65f9     65f9      110     1         build/nanos2/obj/sdk/io/src/os_io_seph_ux.o:(.debug_line)
    6709     6709      391     1         build/nanos2/obj/sdk/io_legacy/src/os_io_legacy.o:(.debug_line)
    6a9a     6a9a      a7c     1         build/nanos2/obj/sdk/lib_nbgl/src/nbgl_layout_nanos.o:(.debug_line)
    7516     7516      727     1         build/nanos2/obj/sdk/lib_nbgl/src/nbgl_step.o:(.debug_line)
    7c3d     7c3d     1ce0     1         build/nanos2/obj/sdk/lib_nbgl/src/nbgl_use_case_nanos.o:(.debug_line)
    991d     991d       ed     1         build/nanos2/obj/sdk/lib_pki/ledger_pki.o:(.debug_line)
    9a0a     9a0a      252     1         build/nanos2/obj/sdk/lib_standard_app/base58.o:(.debug_line)
    9c5c     9c5c      13e     1         build/nanos2/obj/sdk/lib_standard_app/bip32.o:(.debug_line)
    9d9a     9d9a      3d4     1         build/nanos2/obj/sdk/lib_standard_app/buffer.o:(.debug_line)
    a16e     a16e      1f1     1         build/nanos2/obj/sdk/lib_standard_app/crypto_helpers.o:(.debug_line)
    a35f     a35f      2e9     1         build/nanos2/obj/sdk/lib_standard_app/format.o:(.debug_line)
    a648     a648      1b5     1         build/nanos2/obj/sdk/lib_standard_app/io.o:(.debug_line)
    a7fd     a7fd       cd     1         build/nanos2/obj/sdk/lib_standard_app/main.o:(.debug_line)
    a8ca     a8ca       a6     1         build/nanos2/obj/sdk/lib_standard_app/parser.o:(.debug_line)
    a970     a970      155     1         build/nanos2/obj/sdk/lib_standard_app/read.o:(.debug_line)
    aac5     aac5      14b     1         build/nanos2/obj/sdk/lib_standard_app/varint.o:(.debug_line)
    ac10     ac10      172     1         build/nanos2/obj/sdk/lib_standard_app/write.o:(.debug_line)
    ad82     ad82      2e2     1         build/nanos2/obj/sdk/lib_stusb/src/usbd_conf.o:(.debug_line)
    b064     b064      527     1         build/nanos2/obj/sdk/lib_stusb/src/usbd_core.o:(.debug_line)
    b58b     b58b      5a1     1         build/nanos2/obj/sdk/lib_stusb/src/usbd_ctlreq.o:(.debug_line)
    bb2c     bb2c      192     1         build/nanos2/obj/sdk/lib_stusb/src/usbd_desc.o:(.debug_line)
    bcbe     bcbe      115     1         build/nanos2/obj/sdk/lib_stusb/src/usbd_ioreq.o:(.debug_line)
    bdd3     bdd3      a73     1         build/nanos2/obj/sdk/lib_stusb/src/usbd_ledger.o:(.debug_line)
    c846     c846      3cb     1         build/nanos2/obj/sdk/lib_stusb/src/usbd_ledger_hid.o:(.debug_line)
    cc11     cc11      2e3     1         build/nanos2/obj/sdk/lib_stusb/src/usbd_ledger_webusb.o:(.debug_line)
    cef4     cef4      5b5     1         build/nanos2/obj/sdk/lib_tlv/tlv_library.o:(.debug_line)
    d4a9     d4a9      2a5     1         build/nanos2/obj/sdk/lib_tlv/use_cases/tlv_use_case_dynamic_descriptor.o:(.debug_line)
    d74e     d74e      4f4     1         build/nanos2/obj/sdk/lib_tlv/use_cases/tlv_use_case_trusted_name.o:(.debug_line)
    dc42     dc42      12d     1         build/nanos2/obj/sdk/lib_ux_nbgl/ux.o:(.debug_line)
    dd6f     dd6f      38d     1         build/nanos2/obj/sdk/protocol/src/ledger_protocol.o:(.debug_line)
    e0fc     e0fc      2a1     1         build/nanos2/obj/sdk/src/cx_hash_iovec.o:(.debug_line)
    e39d     e39d       a7     1         build/nanos2/obj/sdk/src/cx_wrappers.o:(.debug_line)
    e444     e444      128     1         build/nanos2/obj/sdk/src/ledger_assert.o:(.debug_line)
    e56c     e56c      4c9     1         build/nanos2/obj/sdk/src/os.o:(.debug_line)
    ea35     ea35      905     1         build/nanos2/obj/sdk/src/os_printf.o:(.debug_line)
    f33a     f33a       9e     1         build/nanos2/obj/sdk/src/pic.o:(.debug_line)
    f3d8     f3d8      14f     1         build/nanos2/obj/sdk/src/retrocompatibility_endorsement.o:(.debug_line)
    f527     f527     1501     1         build/nanos2/obj/sdk/src/syscalls.o:(.debug_line)
       0        0     5b5c     4 .debug_frame
       0        0       38     4         build/nanos2/obj/app/src/address.o:(.debug_frame)
      38       38       34     4         build/nanos2/obj/app/src/apdu/dispatcher.o:(.debug_frame)
      6c       6c       3c     4         build/nanos2/obj/app/src/app_main.o:(.debug_frame)
      a8       a8       30     4         build/nanos2/obj/app/src/handler/get_app_name.o:(.debug_frame)
      d8       d8       34     4         build/nanos2/obj/app/src/handler/get_public_key.o:(.debug_frame)
     10c      10c       30     4         build/nanos2/obj/app/src/handler/get_version.o:(.debug_frame)
     13c      13c       8c     4         build/nanos2/obj/app/src/handler/handler_hybrid_sign_userop.o:(.debug_frame)
     1c8      1c8       64     4         build/nanos2/obj/app/src/handler/provide_token_info.o:(.debug_frame)
     22c      22c       38     4         build/nanos2/obj/app/src/handler/sign_tx.o:(.debug_frame)
     264      264      198     4         build/nanos2/obj/app/src/handler/zkn_magicbox.o:(.debug_frame)
     3fc      3fc       54     4         build/nanos2/obj/app/src/helper/send_reponse.o:(.debug_frame)
     450      450       70     4         build/nanos2/obj/app/src/token/dynamic_token_info.o:(.debug_frame)
     4c0      4c0       34     4         build/nanos2/obj/app/src/token/token_db.o:(.debug_frame)
     4f4      4f4       34     4         build/nanos2/obj/app/src/transaction/deserialize.o:(.debug_frame)
     528      528       34     4         build/nanos2/obj/app/src/transaction/serialize.o:(.debug_frame)
     55c      55c       58     4         build/nanos2/obj/app/src/transaction/utils.o:(.debug_frame)
     5b4      5b4       74     4         build/nanos2/obj/app/src/ui/action/validate.o:(.debug_frame)
     628      628       7c     4         build/nanos2/obj/app/src/ui/menu_nbgl.o:(.debug_frame)
     6a4      6a4       4c     4         build/nanos2/obj/app/src/ui/nbgl_display_address.o:(.debug_frame)
     6f0      6f0      114     4         build/nanos2/obj/app/src/ui/nbgl_display_transaction.o:(.debug_frame)
     804      804      26c     4         build/nanos2/obj/app/src/zknox/dilithium/fips202.o:(.debug_frame)
     a70      a70       6c     4         build/nanos2/obj/app/src/zknox/dilithium/keccak256.o:(.debug_frame)
     adc      adc       88     4         build/nanos2/obj/app/src/zknox/dilithium/keccak_prng.o:(.debug_frame)
     b64      b64      458     4         build/nanos2/obj/app/src/zknox/dilithium/lowram.o:(.debug_frame)
     fbc      fbc       60     4         build/nanos2/obj/app/src/zknox/dilithium/ntt.o:(.debug_frame)
    101c     101c       d8     4         build/nanos2/obj/app/src/zknox/dilithium/packing.o:(.debug_frame)
    10f4     10f4      338     4         build/nanos2/obj/app/src/zknox/dilithium/poly.o:(.debug_frame)
    142c     142c      338     4         build/nanos2/obj/app/src/zknox/dilithium/polyvec.o:(.debug_frame)
    1764     1764       2c     4         build/nanos2/obj/app/src/zknox/dilithium/randombytes.o:(.debug_frame)
    1790     1790       54     4         build/nanos2/obj/app/src/zknox/dilithium/reduce.o:(.debug_frame)
    17e4     17e4       54     4         build/nanos2/obj/app/src/zknox/dilithium/rounding.o:(.debug_frame)
    1838     1838      14c     4         build/nanos2/obj/app/src/zknox/dilithium/sign.o:(.debug_frame)
    1984     1984       80     4         build/nanos2/obj/app/src/zknox/dilithium/smallntt_3329.o:(.debug_frame)
    1a04     1a04      104     4         build/nanos2/obj/app/src/zknox/dilithium/smallpoly.o:(.debug_frame)
    1b08     1b08       54     4         build/nanos2/obj/app/src/zknox/dilithium/symmetric-shake.o:(.debug_frame)
    1b5c     1b5c       34     4         build/nanos2/obj/app/src/zknox/keys/derive.o:(.debug_frame)
    1b90     1b90       34     4         build/nanos2/obj/sdk/io/src/os_io.o:(.debug_frame)
    1bc4     1bc4       54     4         build/nanos2/obj/sdk/io/src/os_io_default_apdu.o:(.debug_frame)
    1c18     1c18      16c     4         build/nanos2/obj/sdk/io/src/os_io_seph_cmd.o:(.debug_frame)
    1d84     1d84       6c     4         build/nanos2/obj/sdk/io/src/os_io_seph_ux.o:(.debug_frame)
    1df0     1df0      168     4         build/nanos2/obj/sdk/io_legacy/src/os_io_legacy.o:(.debug_frame)
    1f58     1f58      180     4         build/nanos2/obj/sdk/lib_nbgl/src/nbgl_layout_nanos.o:(.debug_frame)
    20d8     20d8      13c     4         build/nanos2/obj/sdk/lib_nbgl/src/nbgl_step.o:(.debug_frame)
    2214     2214      880     4         build/nanos2/obj/sdk/lib_nbgl/src/nbgl_use_case_nanos.o:(.debug_frame)
    2a94     2a94       38     4         build/nanos2/obj/sdk/lib_pki/ledger_pki.o:(.debug_frame)
    2acc     2acc       64     4         build/nanos2/obj/sdk/lib_standard_app/base58.o:(.debug_frame)
    2b30     2b30       60     4         build/nanos2/obj/sdk/lib_standard_app/bip32.o:(.debug_frame)
    2b90     2b90      128     4         build/nanos2/obj/sdk/lib_standard_app/buffer.o:(.debug_frame)
    2cb8     2cb8       f4     4         build/nanos2/obj/sdk/lib_standard_app/crypto_helpers.o:(.debug_frame)
    2dac     2dac       c0     4         build/nanos2/obj/sdk/lib_standard_app/format.o:(.debug_frame)
    2e6c     2e6c       a4     4         build/nanos2/obj/sdk/lib_standard_app/io.o:(.debug_frame)
    2f10     2f10       70     4         build/nanos2/obj/sdk/lib_standard_app/main.o:(.debug_frame)
    2f80     2f80       24     4         build/nanos2/obj/sdk/lib_standard_app/parser.o:(.debug_frame)
    2fa4     2fa4       84     4         build/nanos2/obj/sdk/lib_standard_app/read.o:(.debug_frame)
    3028     3028       58     4         build/nanos2/obj/sdk/lib_standard_app/varint.o:(.debug_frame)
    3080     3080       84     4         build/nanos2/obj/sdk/lib_standard_app/write.o:(.debug_frame)
    3104     3104      168     4         build/nanos2/obj/sdk/lib_stusb/src/usbd_conf.o:(.debug_frame)
    326c     326c      1f0     4         build/nanos2/obj/sdk/lib_stusb/src/usbd_core.o:(.debug_frame)
    345c     345c       ac     4         build/nanos2/obj/sdk/lib_stusb/src/usbd_ctlreq.o:(.debug_frame)
    3508     3508       b8     4         build/nanos2/obj/sdk/lib_stusb/src/usbd_desc.o:(.debug_frame)
    35c0     35c0       c8     4         build/nanos2/obj/sdk/lib_stusb/src/usbd_ioreq.o:(.debug_frame)
    3688     3688      304     4         build/nanos2/obj/sdk/lib_stusb/src/usbd_ledger.o:(.debug_frame)
    398c     398c      104     4         build/nanos2/obj/sdk/lib_stusb/src/usbd_ledger_hid.o:(.debug_frame)
    3a90     3a90      100     4         build/nanos2/obj/sdk/lib_stusb/src/usbd_ledger_webusb.o:(.debug_frame)
    3b90     3b90      150     4         build/nanos2/obj/sdk/lib_tlv/tlv_library.o:(.debug_frame)
    3ce0     3ce0      130     4         build/nanos2/obj/sdk/lib_tlv/use_cases/tlv_use_case_dynamic_descriptor.o:(.debug_frame)
    3e10     3e10      1c0     4         build/nanos2/obj/sdk/lib_tlv/use_cases/tlv_use_case_trusted_name.o:(.debug_frame)
    3fd0     3fd0       60     4         build/nanos2/obj/sdk/lib_ux_nbgl/ux.o:(.debug_frame)
    4030     4030       64     4         build/nanos2/obj/sdk/protocol/src/ledger_protocol.o:(.debug_frame)
    4094     4094      238     4         build/nanos2/obj/sdk/src/cx_hash_iovec.o:(.debug_frame)
    42cc     42cc       3c     4         build/nanos2/obj/sdk/src/cx_wrappers.o:(.debug_frame)
    4308     4308       e0     4         build/nanos2/obj/sdk/src/ledger_assert.o:(.debug_frame)
    43e8     43e8      1ac     4         build/nanos2/obj/sdk/src/os.o:(.debug_frame)
    4594     4594       a8     4         build/nanos2/obj/sdk/src/os_printf.o:(.debug_frame)
    463c     463c       3c     4         build/nanos2/obj/sdk/src/pic.o:(.debug_frame)
    4678     4678       e4     4         build/nanos2/obj/sdk/src/retrocompatibility_endorsement.o:(.debug_frame)
    475c     475c     1400     4         build/nanos2/obj/sdk/src/syscalls.o:(.debug_frame)
       0        0     2396     1 .debug_str
       0        0     2396     1         <internal>:(.debug_str)
       0        0        6     1 ledger.target
       0        0        6     1         build/nanos2/obj/sdk/src/app_metadata.o:(ledger.target)
       0        0        6     1                 target
       0        0        d     1 ledger.target_name
       0        0        d     1         build/nanos2/obj/sdk/src/app_metadata.o:(ledger.target_name)
       0        0        d     1                 target_name
       0        0        a     1 ledger.target_id
       0        0        a     1         build/nanos2/obj/sdk/src/app_metadata.o:(ledger.target_id)
       0        0        a     1                 target_id
       0        0        5     1 ledger.app_name
       0        0        5     1         build/nanos2/obj/sdk/src/app_metadata.o:(ledger.app_name)
       0        0        5     1                 app_name
       0        0        5     1 ledger.app_version
       0        0        5     1         build/nanos2/obj/sdk/src/app_metadata.o:(ledger.app_version)
       0        0        5     1                 app_version
       0        0        2     1 ledger.api_level
       0        0        2     1         build/nanos2/obj/sdk/src/app_metadata.o:(ledger.api_level)
       0        0        2     1                 api_level
       0        0       11     1 ledger.sdk_name
       0        0       11     1         build/nanos2/obj/sdk/src/app_metadata.o:(ledger.sdk_name)
       0        0       11     1                 sdk_name
       0        0        8     1 ledger.sdk_version
       0        0        8     1         build/nanos2/obj/sdk/src/app_metadata.o:(ledger.sdk_version)
       0        0        8     1                 sdk_version
       0        0       28     1 ledger.sdk_hash
       0        0       28     1         build/nanos2/obj/sdk/src/app_metadata.o:(ledger.sdk_hash)
       0        0       28     1                 sdk_hash
       0        0        4     1 ledger.sdk_graphics
       0        0        4     1         build/nanos2/obj/sdk/src/app_metadata.o:(ledger.sdk_graphics)
       0        0        4     1                 sdk_graphics
       0        0        3     1 ledger.app_flags
       0        0        3     1         build/nanos2/obj/sdk/src/app_metadata.o:(ledger.app_flags)
       0        0        3     1                 app_flags
d0000010 d0000010        0     1 PROVIDE ( _nvram = ABSOLUTE ( _nvram_start ) )
d0000010 d0000010        0     1 PROVIDE ( _envram = ABSOLUTE ( _nvram_end ) )
       0        0       45     1 .ARM.attributes
       0        0       45     1         build/nanos2/gen_src/glyphs.o:(.ARM.attributes)
       0        0      a4c     1 .debug_str_offsets
       0        0       1c     1         build/nanos2/obj/app/src/address.o:(.debug_str_offsets)
      1c       1c       1c     1         build/nanos2/obj/app/src/apdu/dispatcher.o:(.debug_str_offsets)
      38       38       1c     1         build/nanos2/obj/app/src/app_main.o:(.debug_str_offsets)
      54       54       1c     1         build/nanos2/obj/app/src/handler/get_app_name.o:(.debug_str_offsets)
      70       70       20     1         build/nanos2/obj/app/src/handler/get_public_key.o:(.debug_str_offsets)
      90       90       1c     1         build/nanos2/obj/app/src/handler/get_version.o:(.debug_str_offsets)
      ac       ac       28     1         build/nanos2/obj/app/src/handler/handler_hybrid_sign_userop.o:(.debug_str_offsets)
      d4       d4       20     1         build/nanos2/obj/app/src/handler/provide_token_info.o:(.debug_str_offsets)
      f4       f4       2c     1         build/nanos2/obj/app/src/handler/sign_tx.o:(.debug_str_offsets)
     120      120       4c     1         build/nanos2/obj/app/src/handler/zkn_magicbox.o:(.debug_str_offsets)
     16c      16c       20     1         build/nanos2/obj/app/src/helper/send_reponse.o:(.debug_str_offsets)
     18c      18c       1c     1         build/nanos2/obj/app/src/token/dynamic_token_info.o:(.debug_str_offsets)
     1a8      1a8       14     1         build/nanos2/obj/app/src/token/token_db.o:(.debug_str_offsets)
     1bc      1bc       14     1         build/nanos2/obj/app/src/transaction/deserialize.o:(.debug_str_offsets)
     1d0      1d0       14     1         build/nanos2/obj/app/src/transaction/serialize.o:(.debug_str_offsets)
     1e4      1e4       14     1         build/nanos2/obj/app/src/transaction/utils.o:(.debug_str_offsets)
     1f8      1f8       2c     1         build/nanos2/obj/app/src/ui/action/validate.o:(.debug_str_offsets)
     224      224       14     1         build/nanos2/obj/app/src/ui/menu_nbgl.o:(.debug_str_offsets)
     238      238       1c     1         build/nanos2/obj/app/src/ui/nbgl_display_address.o:(.debug_str_offsets)
     254      254       2c     1         build/nanos2/obj/app/src/ui/nbgl_display_transaction.o:(.debug_str_offsets)
     280      280       68     1         build/nanos2/obj/app/src/zknox/dilithium/fips202.o:(.debug_str_offsets)
     2e8      2e8       14     1         build/nanos2/obj/app/src/zknox/dilithium/keccak256.o:(.debug_str_offsets)
     2fc      2fc       14     1         build/nanos2/obj/app/src/zknox/dilithium/keccak_prng.o:(.debug_str_offsets)
     310      310       54     1         build/nanos2/obj/app/src/zknox/dilithium/lowram.o:(.debug_str_offsets)
     364      364       14     1         build/nanos2/obj/app/src/zknox/dilithium/ntt.o:(.debug_str_offsets)
     378      378       14     1         build/nanos2/obj/app/src/zknox/dilithium/packing.o:(.debug_str_offsets)
     38c      38c       24     1         build/nanos2/obj/app/src/zknox/dilithium/poly.o:(.debug_str_offsets)
     3b0      3b0       1c     1         build/nanos2/obj/app/src/zknox/dilithium/polyvec.o:(.debug_str_offsets)
     3cc      3cc       14     1         build/nanos2/obj/app/src/zknox/dilithium/randombytes.o:(.debug_str_offsets)
     3e0      3e0       20     1         build/nanos2/obj/app/src/zknox/dilithium/reduce.o:(.debug_str_offsets)
     400      400       1c     1         build/nanos2/obj/app/src/zknox/dilithium/rounding.o:(.debug_str_offsets)
     41c      41c       24     1         build/nanos2/obj/app/src/zknox/dilithium/sign.o:(.debug_str_offsets)
     440      440       2c     1         build/nanos2/obj/app/src/zknox/dilithium/smallntt_3329.o:(.debug_str_offsets)
     46c      46c       20     1         build/nanos2/obj/app/src/zknox/dilithium/smallpoly.o:(.debug_str_offsets)
     48c      48c       14     1         build/nanos2/obj/app/src/zknox/dilithium/symmetric-shake.o:(.debug_str_offsets)
     4a0      4a0       14     1         build/nanos2/obj/app/src/zknox/keys/derive.o:(.debug_str_offsets)
     4b4      4b4       14     1         build/nanos2/obj/sdk/io/src/os_io.o:(.debug_str_offsets)
     4c8      4c8       1c     1         build/nanos2/obj/sdk/io/src/os_io_default_apdu.o:(.debug_str_offsets)
     4e4      4e4       14     1         build/nanos2/obj/sdk/io/src/os_io_seph_cmd.o:(.debug_str_offsets)
     4f8      4f8       1c     1         build/nanos2/obj/sdk/io/src/os_io_seph_ux.o:(.debug_str_offsets)
     514      514       24     1         build/nanos2/obj/sdk/io_legacy/src/os_io_legacy.o:(.debug_str_offsets)
     538      538       34     1         build/nanos2/obj/sdk/lib_nbgl/src/nbgl_layout_nanos.o:(.debug_str_offsets)
     56c      56c       44     1         build/nanos2/obj/sdk/lib_nbgl/src/nbgl_step.o:(.debug_str_offsets)
     5b0      5b0       a4     1         build/nanos2/obj/sdk/lib_nbgl/src/nbgl_use_case_nanos.o:(.debug_str_offsets)
     654      654       14     1         build/nanos2/obj/sdk/lib_pki/ledger_pki.o:(.debug_str_offsets)
     668      668       14     1         build/nanos2/obj/sdk/lib_standard_app/base58.o:(.debug_str_offsets)
     67c      67c       14     1         build/nanos2/obj/sdk/lib_standard_app/bip32.o:(.debug_str_offsets)
     690      690       3c     1         build/nanos2/obj/sdk/lib_standard_app/buffer.o:(.debug_str_offsets)
     6cc      6cc       14     1         build/nanos2/obj/sdk/lib_standard_app/crypto_helpers.o:(.debug_str_offsets)
     6e0      6e0       1c     1         build/nanos2/obj/sdk/lib_standard_app/format.o:(.debug_str_offsets)
     6fc      6fc       1c     1         build/nanos2/obj/sdk/lib_standard_app/io.o:(.debug_str_offsets)
     718      718       14     1         build/nanos2/obj/sdk/lib_standard_app/main.o:(.debug_str_offsets)
     72c      72c       14     1         build/nanos2/obj/sdk/lib_standard_app/parser.o:(.debug_str_offsets)
     740      740       14     1         build/nanos2/obj/sdk/lib_standard_app/read.o:(.debug_str_offsets)
     754      754       1c     1         build/nanos2/obj/sdk/lib_standard_app/varint.o:(.debug_str_offsets)
     770      770       14     1         build/nanos2/obj/sdk/lib_standard_app/write.o:(.debug_str_offsets)
     784      784       14     1         build/nanos2/obj/sdk/lib_stusb/src/usbd_conf.o:(.debug_str_offsets)
     798      798       14     1         build/nanos2/obj/sdk/lib_stusb/src/usbd_core.o:(.debug_str_offsets)
     7ac      7ac       48     1         build/nanos2/obj/sdk/lib_stusb/src/usbd_ctlreq.o:(.debug_str_offsets)
     7f4      7f4       14     1         build/nanos2/obj/sdk/lib_stusb/src/usbd_desc.o:(.debug_str_offsets)
     808      808       14     1         build/nanos2/obj/sdk/lib_stusb/src/usbd_ioreq.o:(.debug_str_offsets)
     81c      81c       5c     1         build/nanos2/obj/sdk/lib_stusb/src/usbd_ledger.o:(.debug_str_offsets)
     878      878       14     1         build/nanos2/obj/sdk/lib_stusb/src/usbd_ledger_hid.o:(.debug_str_offsets)
     88c      88c       14     1         build/nanos2/obj/sdk/lib_stusb/src/usbd_ledger_webusb.o:(.debug_str_offsets)
     8a0      8a0       3c     1         build/nanos2/obj/sdk/lib_tlv/tlv_library.o:(.debug_str_offsets)
     8dc      8dc       20     1         build/nanos2/obj/sdk/lib_tlv/use_cases/tlv_use_case_dynamic_descriptor.o:(.debug_str_offsets)
     8fc      8fc       3c     1         build/nanos2/obj/sdk/lib_tlv/use_cases/tlv_use_case_trusted_name.o:(.debug_str_offsets)
     938      938       24     1         build/nanos2/obj/sdk/lib_ux_nbgl/ux.o:(.debug_str_offsets)
     95c      95c       28     1         build/nanos2/obj/sdk/protocol/src/ledger_protocol.o:(.debug_str_offsets)
     984      984       14     1         build/nanos2/obj/sdk/src/cx_hash_iovec.o:(.debug_str_offsets)
     998      998       14     1         build/nanos2/obj/sdk/src/cx_wrappers.o:(.debug_str_offsets)
     9ac      9ac       14     1         build/nanos2/obj/sdk/src/ledger_assert.o:(.debug_str_offsets)
     9c0      9c0       2c     1         build/nanos2/obj/sdk/src/os.o:(.debug_str_offsets)
     9ec      9ec       24     1         build/nanos2/obj/sdk/src/os_printf.o:(.debug_str_offsets)
     a10      a10       14     1         build/nanos2/obj/sdk/src/pic.o:(.debug_str_offsets)
     a24      a24       14     1         build/nanos2/obj/sdk/src/retrocompatibility_endorsement.o:(.debug_str_offsets)
     a38      a38       14     1         build/nanos2/obj/sdk/src/syscalls.o:(.debug_str_offsets)
       0        0     117c     1 .debug_addr
       0        0       10     1         build/nanos2/obj/app/src/address.o:(.debug_addr)
      10       10       14     1         build/nanos2/obj/app/src/apdu/dispatcher.o:(.debug_addr)
      24       24       10     1         build/nanos2/obj/app/src/app_main.o:(.debug_addr)
      34       34       10     1         build/nanos2/obj/app/src/handler/get_app_name.o:(.debug_addr)
      44       44       18     1         build/nanos2/obj/app/src/handler/get_public_key.o:(.debug_addr)
      5c       5c       10     1         build/nanos2/obj/app/src/handler/get_version.o:(.debug_addr)
      6c       6c       50     1         build/nanos2/obj/app/src/handler/handler_hybrid_sign_userop.o:(.debug_addr)
      bc       bc       18     1         build/nanos2/obj/app/src/handler/provide_token_info.o:(.debug_addr)
      d4       d4       18     1         build/nanos2/obj/app/src/handler/sign_tx.o:(.debug_addr)
      ec       ec       8c     1         build/nanos2/obj/app/src/handler/zkn_magicbox.o:(.debug_addr)
     178      178       18     1         build/nanos2/obj/app/src/helper/send_reponse.o:(.debug_addr)
     190      190       14     1         build/nanos2/obj/app/src/token/dynamic_token_info.o:(.debug_addr)
     1a4      1a4        c     1         build/nanos2/obj/app/src/token/token_db.o:(.debug_addr)
     1b0      1b0        c     1         build/nanos2/obj/app/src/transaction/deserialize.o:(.debug_addr)
     1bc      1bc        c     1         build/nanos2/obj/app/src/transaction/serialize.o:(.debug_addr)
     1c8      1c8       10     1         build/nanos2/obj/app/src/transaction/utils.o:(.debug_addr)
     1d8      1d8       24     1         build/nanos2/obj/app/src/ui/action/validate.o:(.debug_addr)
     1fc      1fc       18     1         build/nanos2/obj/app/src/ui/menu_nbgl.o:(.debug_addr)
     214      214       14     1         build/nanos2/obj/app/src/ui/nbgl_display_address.o:(.debug_addr)
     228      228       44     1         build/nanos2/obj/app/src/ui/nbgl_display_transaction.o:(.debug_addr)
     26c      26c       7c     1         build/nanos2/obj/app/src/zknox/dilithium/fips202.o:(.debug_addr)
     2e8      2e8       18     1         build/nanos2/obj/app/src/zknox/dilithium/keccak256.o:(.debug_addr)
     300      300       18     1         build/nanos2/obj/app/src/zknox/dilithium/keccak_prng.o:(.debug_addr)
     318      318       b8     1         build/nanos2/obj/app/src/zknox/dilithium/lowram.o:(.debug_addr)
     3d0      3d0       10     1         build/nanos2/obj/app/src/zknox/dilithium/ntt.o:(.debug_addr)
     3e0      3e0       20     1         build/nanos2/obj/app/src/zknox/dilithium/packing.o:(.debug_addr)
     400      400       80     1         build/nanos2/obj/app/src/zknox/dilithium/poly.o:(.debug_addr)
     480      480       70     1         build/nanos2/obj/app/src/zknox/dilithium/polyvec.o:(.debug_addr)
     4f0      4f0        c     1         build/nanos2/obj/app/src/zknox/dilithium/randombytes.o:(.debug_addr)
     4fc      4fc       1c     1         build/nanos2/obj/app/src/zknox/dilithium/reduce.o:(.debug_addr)
     518      518       18     1         build/nanos2/obj/app/src/zknox/dilithium/rounding.o:(.debug_addr)
     530      530       3c     1         build/nanos2/obj/app/src/zknox/dilithium/sign.o:(.debug_addr)
     56c      56c       4c     1         build/nanos2/obj/app/src/zknox/dilithium/smallntt_3329.o:(.debug_addr)
     5b8      5b8       2c     1         build/nanos2/obj/app/src/zknox/dilithium/smallpoly.o:(.debug_addr)
     5e4      5e4       10     1         build/nanos2/obj/app/src/zknox/dilithium/symmetric-shake.o:(.debug_addr)
     5f4      5f4        c     1         build/nanos2/obj/app/src/zknox/keys/derive.o:(.debug_addr)
     600      600        c     1         build/nanos2/obj/sdk/io/src/os_io.o:(.debug_addr)
     60c      60c       14     1         build/nanos2/obj/sdk/io/src/os_io_default_apdu.o:(.debug_addr)
     620      620       40     1         build/nanos2/obj/sdk/io/src/os_io_seph_cmd.o:(.debug_addr)
     660      660       18     1         build/nanos2/obj/sdk/io/src/os_io_seph_ux.o:(.debug_addr)
     678      678       40     1         build/nanos2/obj/sdk/io_legacy/src/os_io_legacy.o:(.debug_addr)
     6b8      6b8       38     1         build/nanos2/obj/sdk/lib_nbgl/src/nbgl_layout_nanos.o:(.debug_addr)
     6f0      6f0       38     1         build/nanos2/obj/sdk/lib_nbgl/src/nbgl_step.o:(.debug_addr)
     728      728      168     1         build/nanos2/obj/sdk/lib_nbgl/src/nbgl_use_case_nanos.o:(.debug_addr)
     890      890        c     1         build/nanos2/obj/sdk/lib_pki/ledger_pki.o:(.debug_addr)
     89c      89c       10     1         build/nanos2/obj/sdk/lib_standard_app/base58.o:(.debug_addr)
     8ac      8ac       10     1         build/nanos2/obj/sdk/lib_standard_app/bip32.o:(.debug_addr)
     8bc      8bc       48     1         build/nanos2/obj/sdk/lib_standard_app/buffer.o:(.debug_addr)
     904      904       20     1         build/nanos2/obj/sdk/lib_standard_app/crypto_helpers.o:(.debug_addr)
     924      924       20     1         build/nanos2/obj/sdk/lib_standard_app/format.o:(.debug_addr)
     944      944       24     1         build/nanos2/obj/sdk/lib_standard_app/io.o:(.debug_addr)
     968      968       18     1         build/nanos2/obj/sdk/lib_standard_app/main.o:(.debug_addr)
     980      980        c     1         build/nanos2/obj/sdk/lib_standard_app/parser.o:(.debug_addr)
     98c      98c       20     1         build/nanos2/obj/sdk/lib_standard_app/read.o:(.debug_addr)
     9ac      9ac       18     1         build/nanos2/obj/sdk/lib_standard_app/varint.o:(.debug_addr)
     9c4      9c4       20     1         build/nanos2/obj/sdk/lib_standard_app/write.o:(.debug_addr)
     9e4      9e4       40     1         build/nanos2/obj/sdk/lib_stusb/src/usbd_conf.o:(.debug_addr)
     a24      a24       58     1         build/nanos2/obj/sdk/lib_stusb/src/usbd_core.o:(.debug_addr)
     a7c      a7c       50     1         build/nanos2/obj/sdk/lib_stusb/src/usbd_ctlreq.o:(.debug_addr)
     acc      acc       24     1         build/nanos2/obj/sdk/lib_stusb/src/usbd_desc.o:(.debug_addr)
     af0      af0       24     1         build/nanos2/obj/sdk/lib_stusb/src/usbd_ioreq.o:(.debug_addr)
     b14      b14       ac     1         build/nanos2/obj/sdk/lib_stusb/src/usbd_ledger.o:(.debug_addr)
     bc0      bc0       2c     1         build/nanos2/obj/sdk/lib_stusb/src/usbd_ledger_hid.o:(.debug_addr)
     bec      bec       2c     1         build/nanos2/obj/sdk/lib_stusb/src/usbd_ledger_webusb.o:(.debug_addr)
     c18      c18       44     1         build/nanos2/obj/sdk/lib_tlv/tlv_library.o:(.debug_addr)
     c5c      c5c       3c     1         build/nanos2/obj/sdk/lib_tlv/use_cases/tlv_use_case_dynamic_descriptor.o:(.debug_addr)
     c98      c98       54     1         build/nanos2/obj/sdk/lib_tlv/use_cases/tlv_use_case_trusted_name.o:(.debug_addr)
     cec      cec       1c     1         build/nanos2/obj/sdk/lib_ux_nbgl/ux.o:(.debug_addr)
     d08      d08       20     1         build/nanos2/obj/sdk/protocol/src/ledger_protocol.o:(.debug_addr)
     d28      d28       54     1         build/nanos2/obj/sdk/src/cx_hash_iovec.o:(.debug_addr)
     d7c      d7c        c     1         build/nanos2/obj/sdk/src/cx_wrappers.o:(.debug_addr)
     d88      d88       28     1         build/nanos2/obj/sdk/src/ledger_assert.o:(.debug_addr)
     db0      db0       5c     1         build/nanos2/obj/sdk/src/os.o:(.debug_addr)
     e0c      e0c       58     1         build/nanos2/obj/sdk/src/os_printf.o:(.debug_addr)
     e64      e64       10     1         build/nanos2/obj/sdk/src/pic.o:(.debug_addr)
     e74      e74       28     1         build/nanos2/obj/sdk/src/retrocompatibility_endorsement.o:(.debug_addr)
     e9c      e9c      2e0     1         build/nanos2/obj/sdk/src/syscalls.o:(.debug_addr)
       0        0      d5f     1 .debug_line_str
       0        0      d5f     1         <internal>:(.debug_line_str)
       0        0     1591     1 .debug_rnglists
       0        0       50     1         build/nanos2/obj/app/src/handler/handler_hybrid_sign_userop.o:(.debug_rnglists)
      50       50       2c     1         build/nanos2/obj/app/src/handler/provide_token_info.o:(.debug_rnglists)
      7c       7c       28     1         build/nanos2/obj/app/src/handler/sign_tx.o:(.debug_rnglists)
      a4       a4       3c     1         build/nanos2/obj/app/src/handler/zkn_magicbox.o:(.debug_rnglists)
      e0       e0       17     1         build/nanos2/obj/app/src/helper/send_reponse.o:(.debug_rnglists)
      f7       f7       2a     1         build/nanos2/obj/app/src/token/dynamic_token_info.o:(.debug_rnglists)
     121      121       19     1         build/nanos2/obj/app/src/transaction/utils.o:(.debug_rnglists)
     13a      13a       5e     1         build/nanos2/obj/app/src/ui/action/validate.o:(.debug_rnglists)
     198      198       20     1         build/nanos2/obj/app/src/ui/menu_nbgl.o:(.debug_rnglists)
     1b8      1b8       18     1         build/nanos2/obj/app/src/ui/nbgl_display_address.o:(.debug_rnglists)
     1d0      1d0       65     1         build/nanos2/obj/app/src/ui/nbgl_display_transaction.o:(.debug_rnglists)
     235      235      119     1         build/nanos2/obj/app/src/zknox/dilithium/fips202.o:(.debug_rnglists)
     34e      34e       1d     1         build/nanos2/obj/app/src/zknox/dilithium/keccak256.o:(.debug_rnglists)
     36b      36b       1e     1         build/nanos2/obj/app/src/zknox/dilithium/keccak_prng.o:(.debug_rnglists)
     389      389      159     1         build/nanos2/obj/app/src/zknox/dilithium/lowram.o:(.debug_rnglists)
     4e2      4e2       18     1         build/nanos2/obj/app/src/zknox/dilithium/ntt.o:(.debug_rnglists)
     4fa      4fa       26     1         build/nanos2/obj/app/src/zknox/dilithium/packing.o:(.debug_rnglists)
     520      520       7c     1         build/nanos2/obj/app/src/zknox/dilithium/poly.o:(.debug_rnglists)
     59c      59c       6c     1         build/nanos2/obj/app/src/zknox/dilithium/polyvec.o:(.debug_rnglists)
     608      608       1d     1         build/nanos2/obj/app/src/zknox/dilithium/reduce.o:(.debug_rnglists)
     625      625       2a     1         build/nanos2/obj/app/src/zknox/dilithium/rounding.o:(.debug_rnglists)
     64f      64f       3e     1         build/nanos2/obj/app/src/zknox/dilithium/sign.o:(.debug_rnglists)
     68d      68d       50     1         build/nanos2/obj/app/src/zknox/dilithium/smallntt_3329.o:(.debug_rnglists)
     6dd      6dd       28     1         build/nanos2/obj/app/src/zknox/dilithium/smallpoly.o:(.debug_rnglists)
     705      705       17     1         build/nanos2/obj/app/src/zknox/dilithium/symmetric-shake.o:(.debug_rnglists)
     71c      71c       18     1         build/nanos2/obj/sdk/io/src/os_io_default_apdu.o:(.debug_rnglists)
     734      734       3b     1         build/nanos2/obj/sdk/io/src/os_io_seph_cmd.o:(.debug_rnglists)
     76f      76f       2a     1         build/nanos2/obj/sdk/io/src/os_io_seph_ux.o:(.debug_rnglists)
     799      799       5c     1         build/nanos2/obj/sdk/io_legacy/src/os_io_legacy.o:(.debug_rnglists)
     7f5      7f5      126     1         build/nanos2/obj/sdk/lib_nbgl/src/nbgl_layout_nanos.o:(.debug_rnglists)
     91b      91b       c3     1         build/nanos2/obj/sdk/lib_nbgl/src/nbgl_step.o:(.debug_rnglists)
     9de      9de      22d     1         build/nanos2/obj/sdk/lib_nbgl/src/nbgl_use_case_nanos.o:(.debug_rnglists)
     c0b      c0b       19     1         build/nanos2/obj/sdk/lib_standard_app/base58.o:(.debug_rnglists)
     c24      c24       18     1         build/nanos2/obj/sdk/lib_standard_app/bip32.o:(.debug_rnglists)
     c3c      c3c       9d     1         build/nanos2/obj/sdk/lib_standard_app/buffer.o:(.debug_rnglists)
     cd9      cd9       27     1         build/nanos2/obj/sdk/lib_standard_app/crypto_helpers.o:(.debug_rnglists)
     d00      d00       22     1         build/nanos2/obj/sdk/lib_standard_app/format.o:(.debug_rnglists)
     d22      d22       24     1         build/nanos2/obj/sdk/lib_standard_app/io.o:(.debug_rnglists)
     d46      d46       1d     1         build/nanos2/obj/sdk/lib_standard_app/main.o:(.debug_rnglists)
     d63      d63       23     1         build/nanos2/obj/sdk/lib_standard_app/read.o:(.debug_rnglists)
     d86      d86       1a     1         build/nanos2/obj/sdk/lib_standard_app/varint.o:(.debug_rnglists)
     da0      da0       23     1         build/nanos2/obj/sdk/lib_standard_app/write.o:(.debug_rnglists)
     dc3      dc3       3c     1         build/nanos2/obj/sdk/lib_stusb/src/usbd_conf.o:(.debug_rnglists)
     dff      dff       4e     1         build/nanos2/obj/sdk/lib_stusb/src/usbd_core.o:(.debug_rnglists)
     e4d      e4d       7a     1         build/nanos2/obj/sdk/lib_stusb/src/usbd_ctlreq.o:(.debug_rnglists)
     ec7      ec7       27     1         build/nanos2/obj/sdk/lib_stusb/src/usbd_desc.o:(.debug_rnglists)
     eee      eee       26     1         build/nanos2/obj/sdk/lib_stusb/src/usbd_ioreq.o:(.debug_rnglists)
     f14      f14       a6     1         build/nanos2/obj/sdk/lib_stusb/src/usbd_ledger.o:(.debug_rnglists)
     fba      fba       2e     1         build/nanos2/obj/sdk/lib_stusb/src/usbd_ledger_hid.o:(.debug_rnglists)
     fe8      fe8       2e     1         build/nanos2/obj/sdk/lib_stusb/src/usbd_ledger_webusb.o:(.debug_rnglists)
    1016     1016       41     1         build/nanos2/obj/sdk/lib_tlv/tlv_library.o:(.debug_rnglists)
    1057     1057       34     1         build/nanos2/obj/sdk/lib_tlv/use_cases/tlv_use_case_dynamic_descriptor.o:(.debug_rnglists)
    108b     108b       a4     1         build/nanos2/obj/sdk/lib_tlv/use_cases/tlv_use_case_trusted_name.o:(.debug_rnglists)
    112f     112f       27     1         build/nanos2/obj/sdk/lib_ux_nbgl/ux.o:(.debug_rnglists)
    1156     1156       5f     1         build/nanos2/obj/sdk/protocol/src/ledger_protocol.o:(.debug_rnglists)
    11b5     11b5       4c     1         build/nanos2/obj/sdk/src/cx_hash_iovec.o:(.debug_rnglists)
    1201     1201       29     1         build/nanos2/obj/sdk/src/ledger_assert.o:(.debug_rnglists)
    122a     122a       48     1         build/nanos2/obj/sdk/src/os.o:(.debug_rnglists)
    1272     1272       76     1         build/nanos2/obj/sdk/src/os_printf.o:(.debug_rnglists)
    12e8     12e8       17     1         build/nanos2/obj/sdk/src/pic.o:(.debug_rnglists)
    12ff     12ff       29     1         build/nanos2/obj/sdk/src/retrocompatibility_endorsement.o:(.debug_rnglists)
    1328     1328      269     1         build/nanos2/obj/sdk/src/syscalls.o:(.debug_rnglists)
       0        0     3bf0     4 .symtab
       0        0     3bf0     4         <internal>:(.symtab)
       0        0      186     1 .shstrtab
       0        0      186     1         <internal>:(.shstrtab)
       0        0     34cb     1 .strtab
       0        0     34cb     1         <internal>:(.strtab)
